
APP2.elf:     file format elf32-littlearm

Sections:
Idx Name          Size      VMA       LMA       File off  Algn
  0 .isr_vector   00000194  0800c800  0800c800  0000c800  2**0
                  CONTENTS, ALLOC, LOAD, READONLY, DATA
  1 .text         00001714  0800c994  0800c994  0000c994  2**2
                  CONTENTS, ALLOC, LOAD, READONLY, CODE
  2 .rodata       00000010  0800e0a8  0800e0a8  0000e0a8  2**2
                  CONTENTS, ALLOC, LOAD, READONLY, DATA
  3 .ARM.extab    00000000  0800e0b8  0800e0b8  0001000c  2**0
                  CONTENTS
  4 .ARM          00000008  0800e0b8  0800e0b8  0000e0b8  2**2
                  CONTENTS, ALLOC, LOAD, READONLY, DATA
  5 .preinit_array 00000000  0800e0c0  0800e0c0  0001000c  2**0
                  CONTENTS, ALLOC, LOAD, DATA
  6 .init_array   00000004  0800e0c0  0800e0c0  0000e0c0  2**2
                  CONTENTS, ALLOC, LOAD, DATA
  7 .fini_array   00000004  0800e0c4  0800e0c4  0000e0c4  2**2
                  CONTENTS, ALLOC, LOAD, DATA
  8 .data         0000000c  20000000  0800e0c8  00010000  2**2
                  CONTENTS, ALLOC, LOAD, DATA
  9 .bss          00000078  2000000c  0800e0d4  0001000c  2**2
                  ALLOC
 10 ._user_heap_stack 00000604  20000084  0800e0d4  00010084  2**0
                  ALLOC
 11 .ARM.attributes 00000030  00000000  00000000  0001000c  2**0
                  CONTENTS, READONLY
 12 .comment      00000043  00000000  00000000  0001003c  2**0
                  CONTENTS, READONLY
 13 .debug_info   000057c6  00000000  00000000  0001007f  2**0
                  CONTENTS, READONLY, DEBUGGING, OCTETS
 14 .debug_abbrev 00001423  00000000  00000000  00015845  2**0
                  CONTENTS, READONLY, DEBUGGING, OCTETS
 15 .debug_aranges 00000608  00000000  00000000  00016c68  2**3
                  CONTENTS, READONLY, DEBUGGING, OCTETS
 16 .debug_rnglists 0000046e  00000000  00000000  00017270  2**0
                  CONTENTS, READONLY, DEBUGGING, OCTETS
 17 .debug_macro  000149c9  00000000  00000000  000176de  2**0
                  CONTENTS, READONLY, DEBUGGING, OCTETS
 18 .debug_line   00007987  00000000  00000000  0002c0a7  2**0
                  CONTENTS, READONLY, DEBUGGING, OCTETS
 19 .debug_str    00080263  00000000  00000000  00033a2e  2**0
                  CONTENTS, READONLY, DEBUGGING, OCTETS
 20 .debug_frame  000016c0  00000000  00000000  000b3c94  2**2
                  CONTENTS, READONLY, DEBUGGING, OCTETS
 21 .debug_line_str 0000005d  00000000  00000000  000b5354  2**0
                  CONTENTS, READONLY, DEBUGGING, OCTETS

Disassembly of section .text:

0800c994 <__do_global_dtors_aux>:
 800c994:	b510      	push	{r4, lr}
 800c996:	4c05      	ldr	r4, [pc, #20]	; (800c9ac <__do_global_dtors_aux+0x18>)
 800c998:	7823      	ldrb	r3, [r4, #0]
 800c99a:	b933      	cbnz	r3, 800c9aa <__do_global_dtors_aux+0x16>
 800c99c:	4b04      	ldr	r3, [pc, #16]	; (800c9b0 <__do_global_dtors_aux+0x1c>)
 800c99e:	b113      	cbz	r3, 800c9a6 <__do_global_dtors_aux+0x12>
 800c9a0:	4804      	ldr	r0, [pc, #16]	; (800c9b4 <__do_global_dtors_aux+0x20>)
 800c9a2:	f3af 8000 	nop.w
 800c9a6:	2301      	movs	r3, #1
 800c9a8:	7023      	strb	r3, [r4, #0]
 800c9aa:	bd10      	pop	{r4, pc}
 800c9ac:	2000000c 	.word	0x2000000c
 800c9b0:	00000000 	.word	0x00000000
 800c9b4:	0800e090 	.word	0x0800e090

0800c9b8 <frame_dummy>:
 800c9b8:	b508      	push	{r3, lr}
 800c9ba:	4b03      	ldr	r3, [pc, #12]	; (800c9c8 <frame_dummy+0x10>)
 800c9bc:	b11b      	cbz	r3, 800c9c6 <frame_dummy+0xe>
 800c9be:	4903      	ldr	r1, [pc, #12]	; (800c9cc <frame_dummy+0x14>)
 800c9c0:	4803      	ldr	r0, [pc, #12]	; (800c9d0 <frame_dummy+0x18>)
 800c9c2:	f3af 8000 	nop.w
 800c9c6:	bd08      	pop	{r3, pc}
 800c9c8:	00000000 	.word	0x00000000
 800c9cc:	20000010 	.word	0x20000010
 800c9d0:	0800e090 	.word	0x0800e090

0800c9d4 <__aeabi_uldivmod>:
 800c9d4:	b953      	cbnz	r3, 800c9ec <__aeabi_uldivmod+0x18>
 800c9d6:	b94a      	cbnz	r2, 800c9ec <__aeabi_uldivmod+0x18>
 800c9d8:	2900      	cmp	r1, #0
 800c9da:	bf08      	it	eq
 800c9dc:	2800      	cmpeq	r0, #0
 800c9de:	bf1c      	itt	ne
 800c9e0:	f04f 31ff 	movne.w	r1, #4294967295
 800c9e4:	f04f 30ff 	movne.w	r0, #4294967295
 800c9e8:	f000 b970 	b.w	800cccc <__aeabi_idiv0>
 800c9ec:	f1ad 0c08 	sub.w	ip, sp, #8
 800c9f0:	e96d ce04 	strd	ip, lr, [sp, #-16]!
 800c9f4:	f000 f806 	bl	800ca04 <__udivmoddi4>
 800c9f8:	f8dd e004 	ldr.w	lr, [sp, #4]
 800c9fc:	e9dd 2302 	ldrd	r2, r3, [sp, #8]
 800ca00:	b004      	add	sp, #16
 800ca02:	4770      	bx	lr

0800ca04 <__udivmoddi4>:
 800ca04:	e92d 47f0 	stmdb	sp!, {r4, r5, r6, r7, r8, r9, sl, lr}
 800ca08:	9e08      	ldr	r6, [sp, #32]
 800ca0a:	460d      	mov	r5, r1
 800ca0c:	4604      	mov	r4, r0
 800ca0e:	460f      	mov	r7, r1
 800ca10:	2b00      	cmp	r3, #0
 800ca12:	d14a      	bne.n	800caaa <__udivmoddi4+0xa6>
 800ca14:	428a      	cmp	r2, r1
 800ca16:	4694      	mov	ip, r2
 800ca18:	d965      	bls.n	800cae6 <__udivmoddi4+0xe2>
 800ca1a:	fab2 f382 	clz	r3, r2
 800ca1e:	b143      	cbz	r3, 800ca32 <__udivmoddi4+0x2e>
 800ca20:	fa02 fc03 	lsl.w	ip, r2, r3
 800ca24:	f1c3 0220 	rsb	r2, r3, #32
 800ca28:	409f      	lsls	r7, r3
 800ca2a:	fa20 f202 	lsr.w	r2, r0, r2
 800ca2e:	4317      	orrs	r7, r2
 800ca30:	409c      	lsls	r4, r3
 800ca32:	ea4f 4e1c 	mov.w	lr, ip, lsr #16
 800ca36:	fa1f f58c 	uxth.w	r5, ip
 800ca3a:	fbb7 f1fe 	udiv	r1, r7, lr
 800ca3e:	0c22      	lsrs	r2, r4, #16
 800ca40:	fb0e 7711 	mls	r7, lr, r1, r7
 800ca44:	ea42 4207 	orr.w	r2, r2, r7, lsl #16
 800ca48:	fb01 f005 	mul.w	r0, r1, r5
 800ca4c:	4290      	cmp	r0, r2
 800ca4e:	d90a      	bls.n	800ca66 <__udivmoddi4+0x62>
 800ca50:	eb1c 0202 	adds.w	r2, ip, r2
 800ca54:	f101 37ff 	add.w	r7, r1, #4294967295
 800ca58:	f080 811c 	bcs.w	800cc94 <__udivmoddi4+0x290>
 800ca5c:	4290      	cmp	r0, r2
 800ca5e:	f240 8119 	bls.w	800cc94 <__udivmoddi4+0x290>
 800ca62:	3902      	subs	r1, #2
 800ca64:	4462      	add	r2, ip
 800ca66:	1a12      	subs	r2, r2, r0
 800ca68:	b2a4      	uxth	r4, r4
 800ca6a:	fbb2 f0fe 	udiv	r0, r2, lr
 800ca6e:	fb0e 2210 	mls	r2, lr, r0, r2
 800ca72:	ea44 4402 	orr.w	r4, r4, r2, lsl #16
 800ca76:	fb00 f505 	mul.w	r5, r0, r5
 800ca7a:	42a5      	cmp	r5, r4
 800ca7c:	d90a      	bls.n	800ca94 <__udivmoddi4+0x90>
 800ca7e:	eb1c 0404 	adds.w	r4, ip, r4
 800ca82:	f100 32ff 	add.w	r2, r0, #4294967295
 800ca86:	f080 8107 	bcs.w	800cc98 <__udivmoddi4+0x294>
 800ca8a:	42a5      	cmp	r5, r4
 800ca8c:	f240 8104 	bls.w	800cc98 <__udivmoddi4+0x294>
 800ca90:	4464      	add	r4, ip
 800ca92:	3802      	subs	r0, #2
 800ca94:	ea40 4001 	orr.w	r0, r0, r1, lsl #16
 800ca98:	1b64      	subs	r4, r4, r5
 800ca9a:	2100      	movs	r1, #0
 800ca9c:	b11e      	cbz	r6, 800caa6 <__udivmoddi4+0xa2>
 800ca9e:	40dc      	lsrs	r4, r3
 800caa0:	2300      	movs	r3, #0
 800caa2:	e9c6 4300 	strd	r4, r3, [r6]
 800caa6:	e8bd 87f0 	ldmia.w	sp!, {r4, r5, r6, r7, r8, r9, sl, pc}
 800caaa:	428b      	cmp	r3, r1
 800caac:	d908      	bls.n	800cac0 <__udivmoddi4+0xbc>
 800caae:	2e00      	cmp	r6, #0
 800cab0:	f000 80ed 	beq.w	800cc8e <__udivmoddi4+0x28a>
 800cab4:	2100      	movs	r1, #0
 800cab6:	e9c6 0500 	strd	r0, r5, [r6]
 800caba:	4608      	mov	r0, r1
 800cabc:	e8bd 87f0 	ldmia.w	sp!, {r4, r5, r6, r7, r8, r9, sl, pc}
 800cac0:	fab3 f183 	clz	r1, r3
 800cac4:	2900      	cmp	r1, #0
 800cac6:	d149      	bne.n	800cb5c <__udivmoddi4+0x158>
 800cac8:	42ab      	cmp	r3, r5
 800caca:	d302      	bcc.n	800cad2 <__udivmoddi4+0xce>
 800cacc:	4282      	cmp	r2, r0
 800cace:	f200 80f8 	bhi.w	800ccc2 <__udivmoddi4+0x2be>
 800cad2:	1a84      	subs	r4, r0, r2
 800cad4:	eb65 0203 	sbc.w	r2, r5, r3
 800cad8:	2001      	movs	r0, #1
 800cada:	4617      	mov	r7, r2
 800cadc:	2e00      	cmp	r6, #0
 800cade:	d0e2      	beq.n	800caa6 <__udivmoddi4+0xa2>
 800cae0:	e9c6 4700 	strd	r4, r7, [r6]
 800cae4:	e7df      	b.n	800caa6 <__udivmoddi4+0xa2>
 800cae6:	b902      	cbnz	r2, 800caea <__udivmoddi4+0xe6>
 800cae8:	deff      	udf	#255	; 0xff
 800caea:	fab2 f382 	clz	r3, r2
 800caee:	2b00      	cmp	r3, #0
 800caf0:	f040 8090 	bne.w	800cc14 <__udivmoddi4+0x210>
 800caf4:	1a8a      	subs	r2, r1, r2
 800caf6:	ea4f 471c 	mov.w	r7, ip, lsr #16
 800cafa:	fa1f fe8c 	uxth.w	lr, ip
 800cafe:	2101      	movs	r1, #1
 800cb00:	fbb2 f5f7 	udiv	r5, r2, r7
 800cb04:	fb07 2015 	mls	r0, r7, r5, r2
 800cb08:	0c22      	lsrs	r2, r4, #16
 800cb0a:	ea42 4200 	orr.w	r2, r2, r0, lsl #16
 800cb0e:	fb0e f005 	mul.w	r0, lr, r5
 800cb12:	4290      	cmp	r0, r2
 800cb14:	d908      	bls.n	800cb28 <__udivmoddi4+0x124>
 800cb16:	eb1c 0202 	adds.w	r2, ip, r2
 800cb1a:	f105 38ff 	add.w	r8, r5, #4294967295
 800cb1e:	d202      	bcs.n	800cb26 <__udivmoddi4+0x122>
 800cb20:	4290      	cmp	r0, r2
 800cb22:	f200 80cb 	bhi.w	800ccbc <__udivmoddi4+0x2b8>
 800cb26:	4645      	mov	r5, r8
 800cb28:	1a12      	subs	r2, r2, r0
 800cb2a:	b2a4      	uxth	r4, r4
 800cb2c:	fbb2 f0f7 	udiv	r0, r2, r7
 800cb30:	fb07 2210 	mls	r2, r7, r0, r2
 800cb34:	ea44 4402 	orr.w	r4, r4, r2, lsl #16
 800cb38:	fb0e fe00 	mul.w	lr, lr, r0
 800cb3c:	45a6      	cmp	lr, r4
 800cb3e:	d908      	bls.n	800cb52 <__udivmoddi4+0x14e>
 800cb40:	eb1c 0404 	adds.w	r4, ip, r4
 800cb44:	f100 32ff 	add.w	r2, r0, #4294967295
 800cb48:	d202      	bcs.n	800cb50 <__udivmoddi4+0x14c>
 800cb4a:	45a6      	cmp	lr, r4
 800cb4c:	f200 80bb 	bhi.w	800ccc6 <__udivmoddi4+0x2c2>
 800cb50:	4610      	mov	r0, r2
 800cb52:	eba4 040e 	sub.w	r4, r4, lr
 800cb56:	ea40 4005 	orr.w	r0, r0, r5, lsl #16
 800cb5a:	e79f      	b.n	800ca9c <__udivmoddi4+0x98>
 800cb5c:	f1c1 0720 	rsb	r7, r1, #32
 800cb60:	408b      	lsls	r3, r1
 800cb62:	fa22 fc07 	lsr.w	ip, r2, r7
 800cb66:	ea4c 0c03 	orr.w	ip, ip, r3
 800cb6a:	fa05 f401 	lsl.w	r4, r5, r1
 800cb6e:	fa20 f307 	lsr.w	r3, r0, r7
 800cb72:	40fd      	lsrs	r5, r7
 800cb74:	ea4f 491c 	mov.w	r9, ip, lsr #16
 800cb78:	4323      	orrs	r3, r4
 800cb7a:	fbb5 f8f9 	udiv	r8, r5, r9
 800cb7e:	fa1f fe8c 	uxth.w	lr, ip
 800cb82:	fb09 5518 	mls	r5, r9, r8, r5
 800cb86:	0c1c      	lsrs	r4, r3, #16
 800cb88:	ea44 4405 	orr.w	r4, r4, r5, lsl #16
 800cb8c:	fb08 f50e 	mul.w	r5, r8, lr
 800cb90:	42a5      	cmp	r5, r4
 800cb92:	fa02 f201 	lsl.w	r2, r2, r1
 800cb96:	fa00 f001 	lsl.w	r0, r0, r1
 800cb9a:	d90b      	bls.n	800cbb4 <__udivmoddi4+0x1b0>
 800cb9c:	eb1c 0404 	adds.w	r4, ip, r4
 800cba0:	f108 3aff 	add.w	sl, r8, #4294967295
 800cba4:	f080 8088 	bcs.w	800ccb8 <__udivmoddi4+0x2b4>
 800cba8:	42a5      	cmp	r5, r4
 800cbaa:	f240 8085 	bls.w	800ccb8 <__udivmoddi4+0x2b4>
 800cbae:	f1a8 0802 	sub.w	r8, r8, #2
 800cbb2:	4464      	add	r4, ip
 800cbb4:	1b64      	subs	r4, r4, r5
 800cbb6:	b29d      	uxth	r5, r3
 800cbb8:	fbb4 f3f9 	udiv	r3, r4, r9
 800cbbc:	fb09 4413 	mls	r4, r9, r3, r4
 800cbc0:	ea45 4404 	orr.w	r4, r5, r4, lsl #16
 800cbc4:	fb03 fe0e 	mul.w	lr, r3, lr
 800cbc8:	45a6      	cmp	lr, r4
 800cbca:	d908      	bls.n	800cbde <__udivmoddi4+0x1da>
 800cbcc:	eb1c 0404 	adds.w	r4, ip, r4
 800cbd0:	f103 35ff 	add.w	r5, r3, #4294967295
 800cbd4:	d26c      	bcs.n	800ccb0 <__udivmoddi4+0x2ac>
 800cbd6:	45a6      	cmp	lr, r4
 800cbd8:	d96a      	bls.n	800ccb0 <__udivmoddi4+0x2ac>
 800cbda:	3b02      	subs	r3, #2
 800cbdc:	4464      	add	r4, ip
 800cbde:	ea43 4308 	orr.w	r3, r3, r8, lsl #16
 800cbe2:	fba3 9502 	umull	r9, r5, r3, r2
 800cbe6:	eba4 040e 	sub.w	r4, r4, lr
 800cbea:	42ac      	cmp	r4, r5
 800cbec:	46c8      	mov	r8, r9
 800cbee:	46ae      	mov	lr, r5
 800cbf0:	d356      	bcc.n	800cca0 <__udivmoddi4+0x29c>
 800cbf2:	d053      	beq.n	800cc9c <__udivmoddi4+0x298>
 800cbf4:	b156      	cbz	r6, 800cc0c <__udivmoddi4+0x208>
 800cbf6:	ebb0 0208 	subs.w	r2, r0, r8
 800cbfa:	eb64 040e 	sbc.w	r4, r4, lr
 800cbfe:	fa04 f707 	lsl.w	r7, r4, r7
 800cc02:	40ca      	lsrs	r2, r1
 800cc04:	40cc      	lsrs	r4, r1
 800cc06:	4317      	orrs	r7, r2
 800cc08:	e9c6 7400 	strd	r7, r4, [r6]
 800cc0c:	4618      	mov	r0, r3
 800cc0e:	2100      	movs	r1, #0
 800cc10:	e8bd 87f0 	ldmia.w	sp!, {r4, r5, r6, r7, r8, r9, sl, pc}
 800cc14:	f1c3 0120 	rsb	r1, r3, #32
 800cc18:	fa02 fc03 	lsl.w	ip, r2, r3
 800cc1c:	fa20 f201 	lsr.w	r2, r0, r1
 800cc20:	fa25 f101 	lsr.w	r1, r5, r1
 800cc24:	409d      	lsls	r5, r3
 800cc26:	432a      	orrs	r2, r5
 800cc28:	ea4f 471c 	mov.w	r7, ip, lsr #16
 800cc2c:	fa1f fe8c 	uxth.w	lr, ip
 800cc30:	fbb1 f0f7 	udiv	r0, r1, r7
 800cc34:	fb07 1510 	mls	r5, r7, r0, r1
 800cc38:	0c11      	lsrs	r1, r2, #16
 800cc3a:	ea41 4105 	orr.w	r1, r1, r5, lsl #16
 800cc3e:	fb00 f50e 	mul.w	r5, r0, lr
 800cc42:	428d      	cmp	r5, r1
 800cc44:	fa04 f403 	lsl.w	r4, r4, r3
 800cc48:	d908      	bls.n	800cc5c <__udivmoddi4+0x258>
 800cc4a:	eb1c 0101 	adds.w	r1, ip, r1
 800cc4e:	f100 38ff 	add.w	r8, r0, #4294967295
 800cc52:	d22f      	bcs.n	800ccb4 <__udivmoddi4+0x2b0>
 800cc54:	428d      	cmp	r5, r1
 800cc56:	d92d      	bls.n	800ccb4 <__udivmoddi4+0x2b0>
 800cc58:	3802      	subs	r0, #2
 800cc5a:	4461      	add	r1, ip
 800cc5c:	1b49      	subs	r1, r1, r5
 800cc5e:	b292      	uxth	r2, r2
 800cc60:	fbb1 f5f7 	udiv	r5, r1, r7
 800cc64:	fb07 1115 	mls	r1, r7, r5, r1
 800cc68:	ea42 4201 	orr.w	r2, r2, r1, lsl #16
 800cc6c:	fb05 f10e 	mul.w	r1, r5, lr
 800cc70:	4291      	cmp	r1, r2
 800cc72:	d908      	bls.n	800cc86 <__udivmoddi4+0x282>
 800cc74:	eb1c 0202 	adds.w	r2, ip, r2
 800cc78:	f105 38ff 	add.w	r8, r5, #4294967295
 800cc7c:	d216      	bcs.n	800ccac <__udivmoddi4+0x2a8>
 800cc7e:	4291      	cmp	r1, r2
 800cc80:	d914      	bls.n	800ccac <__udivmoddi4+0x2a8>
 800cc82:	3d02      	subs	r5, #2
 800cc84:	4462      	add	r2, ip
 800cc86:	1a52      	subs	r2, r2, r1
 800cc88:	ea45 4100 	orr.w	r1, r5, r0, lsl #16
 800cc8c:	e738      	b.n	800cb00 <__udivmoddi4+0xfc>
 800cc8e:	4631      	mov	r1, r6
 800cc90:	4630      	mov	r0, r6
 800cc92:	e708      	b.n	800caa6 <__udivmoddi4+0xa2>
 800cc94:	4639      	mov	r1, r7
 800cc96:	e6e6      	b.n	800ca66 <__udivmoddi4+0x62>
 800cc98:	4610      	mov	r0, r2
 800cc9a:	e6fb      	b.n	800ca94 <__udivmoddi4+0x90>
 800cc9c:	4548      	cmp	r0, r9
 800cc9e:	d2a9      	bcs.n	800cbf4 <__udivmoddi4+0x1f0>
 800cca0:	ebb9 0802 	subs.w	r8, r9, r2
 800cca4:	eb65 0e0c 	sbc.w	lr, r5, ip
 800cca8:	3b01      	subs	r3, #1
 800ccaa:	e7a3      	b.n	800cbf4 <__udivmoddi4+0x1f0>
 800ccac:	4645      	mov	r5, r8
 800ccae:	e7ea      	b.n	800cc86 <__udivmoddi4+0x282>
 800ccb0:	462b      	mov	r3, r5
 800ccb2:	e794      	b.n	800cbde <__udivmoddi4+0x1da>
 800ccb4:	4640      	mov	r0, r8
 800ccb6:	e7d1      	b.n	800cc5c <__udivmoddi4+0x258>
 800ccb8:	46d0      	mov	r8, sl
 800ccba:	e77b      	b.n	800cbb4 <__udivmoddi4+0x1b0>
 800ccbc:	3d02      	subs	r5, #2
 800ccbe:	4462      	add	r2, ip
 800ccc0:	e732      	b.n	800cb28 <__udivmoddi4+0x124>
 800ccc2:	4608      	mov	r0, r1
 800ccc4:	e70a      	b.n	800cadc <__udivmoddi4+0xd8>
 800ccc6:	4464      	add	r4, ip
 800ccc8:	3802      	subs	r0, #2
 800ccca:	e742      	b.n	800cb52 <__udivmoddi4+0x14e>

0800cccc <__aeabi_idiv0>:
 800cccc:	4770      	bx	lr
 800ccce:	bf00      	nop

0800ccd0 <MX_GPIO_Init>:
 800ccd0:	b580      	push	{r7, lr}
 800ccd2:	b088      	sub	sp, #32
 800ccd4:	af00      	add	r7, sp, #0
 800ccd6:	f107 030c 	add.w	r3, r7, #12
 800ccda:	2200      	movs	r2, #0
 800ccdc:	601a      	str	r2, [r3, #0]
 800ccde:	605a      	str	r2, [r3, #4]
 800cce0:	609a      	str	r2, [r3, #8]
 800cce2:	60da      	str	r2, [r3, #12]
 800cce4:	611a      	str	r2, [r3, #16]
 800cce6:	2300      	movs	r3, #0
 800cce8:	60bb      	str	r3, [r7, #8]
 800ccea:	4b1f      	ldr	r3, [pc, #124]	; (800cd68 <MX_GPIO_Init+0x98>)
 800ccec:	6b1b      	ldr	r3, [r3, #48]	; 0x30
 800ccee:	4a1e      	ldr	r2, [pc, #120]	; (800cd68 <MX_GPIO_Init+0x98>)
 800ccf0:	f043 0380 	orr.w	r3, r3, #128	; 0x80
 800ccf4:	6313      	str	r3, [r2, #48]	; 0x30
 800ccf6:	4b1c      	ldr	r3, [pc, #112]	; (800cd68 <MX_GPIO_Init+0x98>)
 800ccf8:	6b1b      	ldr	r3, [r3, #48]	; 0x30
 800ccfa:	f003 0380 	and.w	r3, r3, #128	; 0x80
 800ccfe:	60bb      	str	r3, [r7, #8]
 800cd00:	68bb      	ldr	r3, [r7, #8]
 800cd02:	2300      	movs	r3, #0
 800cd04:	607b      	str	r3, [r7, #4]
 800cd06:	4b18      	ldr	r3, [pc, #96]	; (800cd68 <MX_GPIO_Init+0x98>)
 800cd08:	6b1b      	ldr	r3, [r3, #48]	; 0x30
 800cd0a:	4a17      	ldr	r2, [pc, #92]	; (800cd68 <MX_GPIO_Init+0x98>)
 800cd0c:	f043 0301 	orr.w	r3, r3, #1
 800cd10:	6313      	str	r3, [r2, #48]	; 0x30
 800cd12:	4b15      	ldr	r3, [pc, #84]	; (800cd68 <MX_GPIO_Init+0x98>)
 800cd14:	6b1b      	ldr	r3, [r3, #48]	; 0x30
 800cd16:	f003 0301 	and.w	r3, r3, #1
 800cd1a:	607b      	str	r3, [r7, #4]
 800cd1c:	687b      	ldr	r3, [r7, #4]
 800cd1e:	2300      	movs	r3, #0
 800cd20:	603b      	str	r3, [r7, #0]
 800cd22:	4b11      	ldr	r3, [pc, #68]	; (800cd68 <MX_GPIO_Init+0x98>)
 800cd24:	6b1b      	ldr	r3, [r3, #48]	; 0x30
 800cd26:	4a10      	ldr	r2, [pc, #64]	; (800cd68 <MX_GPIO_Init+0x98>)
 800cd28:	f043 0302 	orr.w	r3, r3, #2
 800cd2c:	6313      	str	r3, [r2, #48]	; 0x30
 800cd2e:	4b0e      	ldr	r3, [pc, #56]	; (800cd68 <MX_GPIO_Init+0x98>)
 800cd30:	6b1b      	ldr	r3, [r3, #48]	; 0x30
 800cd32:	f003 0302 	and.w	r3, r3, #2
 800cd36:	603b      	str	r3, [r7, #0]
 800cd38:	683b      	ldr	r3, [r7, #0]
 800cd3a:	2200      	movs	r2, #0
 800cd3c:	2104      	movs	r1, #4
 800cd3e:	480b      	ldr	r0, [pc, #44]	; (800cd6c <MX_GPIO_Init+0x9c>)
 800cd40:	f000 fcb2 	bl	800d6a8 <HAL_GPIO_WritePin>
 800cd44:	2304      	movs	r3, #4
 800cd46:	60fb      	str	r3, [r7, #12]
 800cd48:	2301      	movs	r3, #1
 800cd4a:	613b      	str	r3, [r7, #16]
 800cd4c:	2300      	movs	r3, #0
 800cd4e:	617b      	str	r3, [r7, #20]
 800cd50:	2300      	movs	r3, #0
 800cd52:	61bb      	str	r3, [r7, #24]
 800cd54:	f107 030c 	add.w	r3, r7, #12
 800cd58:	4619      	mov	r1, r3
 800cd5a:	4804      	ldr	r0, [pc, #16]	; (800cd6c <MX_GPIO_Init+0x9c>)
 800cd5c:	f000 fb20 	bl	800d3a0 <HAL_GPIO_Init>
 800cd60:	bf00      	nop
 800cd62:	3720      	adds	r7, #32
 800cd64:	46bd      	mov	sp, r7
 800cd66:	bd80      	pop	{r7, pc}
 800cd68:	40023800 	.word	0x40023800
 800cd6c:	40020000 	.word	0x40020000

0800cd70 <main>:
 800cd70:	b580      	push	{r7, lr}
 800cd72:	af00      	add	r7, sp, #0
 800cd74:	f000 f998 	bl	800d0a8 <HAL_Init>
 800cd78:	f000 f81a 	bl	800cdb0 <SystemClock_Config>
 800cd7c:	f7ff ffa8 	bl	800ccd0 <MX_GPIO_Init>
 800cd80:	f000 f886 	bl	800ce90 <MX_SPI2_Init>
 800cd84:	2201      	movs	r2, #1
 800cd86:	2104      	movs	r1, #4
 800cd88:	4808      	ldr	r0, [pc, #32]	; (800cdac <main+0x3c>)
 800cd8a:	f000 fc8d 	bl	800d6a8 <HAL_GPIO_WritePin>
 800cd8e:	f44f 707a 	mov.w	r0, #1000	; 0x3e8
 800cd92:	f000 f9fb 	bl	800d18c <HAL_Delay>
 800cd96:	2200      	movs	r2, #0
 800cd98:	2104      	movs	r1, #4
 800cd9a:	4804      	ldr	r0, [pc, #16]	; (800cdac <main+0x3c>)
 800cd9c:	f000 fc84 	bl	800d6a8 <HAL_GPIO_WritePin>
 800cda0:	f44f 707a 	mov.w	r0, #1000	; 0x3e8
 800cda4:	f000 f9f2 	bl	800d18c <HAL_Delay>
 800cda8:	e7ec      	b.n	800cd84 <main+0x14>
 800cdaa:	bf00      	nop
 800cdac:	40020000 	.word	0x40020000

0800cdb0 <SystemClock_Config>:
 800cdb0:	b580      	push	{r7, lr}
 800cdb2:	b094      	sub	sp, #80	; 0x50
 800cdb4:	af00      	add	r7, sp, #0
 800cdb6:	f107 0320 	add.w	r3, r7, #32
 800cdba:	2230      	movs	r2, #48	; 0x30
 800cdbc:	2100      	movs	r1, #0
 800cdbe:	4618      	mov	r0, r3
 800cdc0:	f001 f939 	bl	800e036 <memset>
 800cdc4:	f107 030c 	add.w	r3, r7, #12
 800cdc8:	2200      	movs	r2, #0
 800cdca:	601a      	str	r2, [r3, #0]
 800cdcc:	605a      	str	r2, [r3, #4]
 800cdce:	609a      	str	r2, [r3, #8]
 800cdd0:	60da      	str	r2, [r3, #12]
 800cdd2:	611a      	str	r2, [r3, #16]
 800cdd4:	2300      	movs	r3, #0
 800cdd6:	60bb      	str	r3, [r7, #8]
 800cdd8:	4b28      	ldr	r3, [pc, #160]	; (800ce7c <SystemClock_Config+0xcc>)
 800cdda:	6c1b      	ldr	r3, [r3, #64]	; 0x40
 800cddc:	4a27      	ldr	r2, [pc, #156]	; (800ce7c <SystemClock_Config+0xcc>)
 800cdde:	f043 5380 	orr.w	r3, r3, #268435456	; 0x10000000
 800cde2:	6413      	str	r3, [r2, #64]	; 0x40
 800cde4:	4b25      	ldr	r3, [pc, #148]	; (800ce7c <SystemClock_Config+0xcc>)
 800cde6:	6c1b      	ldr	r3, [r3, #64]	; 0x40
 800cde8:	f003 5380 	and.w	r3, r3, #268435456	; 0x10000000
 800cdec:	60bb      	str	r3, [r7, #8]
 800cdee:	68bb      	ldr	r3, [r7, #8]
 800cdf0:	2300      	movs	r3, #0
 800cdf2:	607b      	str	r3, [r7, #4]
 800cdf4:	4b22      	ldr	r3, [pc, #136]	; (800ce80 <SystemClock_Config+0xd0>)
 800cdf6:	681b      	ldr	r3, [r3, #0]
 800cdf8:	f423 4340 	bic.w	r3, r3, #49152	; 0xc000
 800cdfc:	4a20      	ldr	r2, [pc, #128]	; (800ce80 <SystemClock_Config+0xd0>)
 800cdfe:	f443 4300 	orr.w	r3, r3, #32768	; 0x8000
 800ce02:	6013      	str	r3, [r2, #0]
 800ce04:	4b1e      	ldr	r3, [pc, #120]	; (800ce80 <SystemClock_Config+0xd0>)
 800ce06:	681b      	ldr	r3, [r3, #0]
 800ce08:	f403 4340 	and.w	r3, r3, #49152	; 0xc000
 800ce0c:	607b      	str	r3, [r7, #4]
 800ce0e:	687b      	ldr	r3, [r7, #4]
 800ce10:	2301      	movs	r3, #1
 800ce12:	623b      	str	r3, [r7, #32]
 800ce14:	f44f 3380 	mov.w	r3, #65536	; 0x10000
 800ce18:	627b      	str	r3, [r7, #36]	; 0x24
 800ce1a:	2302      	movs	r3, #2
 800ce1c:	63bb      	str	r3, [r7, #56]	; 0x38
 800ce1e:	f44f 0380 	mov.w	r3, #4194304	; 0x400000
 800ce22:	63fb      	str	r3, [r7, #60]	; 0x3c
 800ce24:	2319      	movs	r3, #25
 800ce26:	643b      	str	r3, [r7, #64]	; 0x40
 800ce28:	23a8      	movs	r3, #168	; 0xa8
 800ce2a:	647b      	str	r3, [r7, #68]	; 0x44
 800ce2c:	2302      	movs	r3, #2
 800ce2e:	64bb      	str	r3, [r7, #72]	; 0x48
 800ce30:	2304      	movs	r3, #4
 800ce32:	64fb      	str	r3, [r7, #76]	; 0x4c
 800ce34:	f107 0320 	add.w	r3, r7, #32
 800ce38:	4618      	mov	r0, r3
 800ce3a:	f000 fc4f 	bl	800d6dc <HAL_RCC_OscConfig>
 800ce3e:	4603      	mov	r3, r0
 800ce40:	2b00      	cmp	r3, #0
 800ce42:	d001      	beq.n	800ce48 <SystemClock_Config+0x98>
 800ce44:	f000 f81e 	bl	800ce84 <Error_Handler>
 800ce48:	230f      	movs	r3, #15
 800ce4a:	60fb      	str	r3, [r7, #12]
 800ce4c:	2302      	movs	r3, #2
 800ce4e:	613b      	str	r3, [r7, #16]
 800ce50:	2300      	movs	r3, #0
 800ce52:	617b      	str	r3, [r7, #20]
 800ce54:	f44f 5380 	mov.w	r3, #4096	; 0x1000
 800ce58:	61bb      	str	r3, [r7, #24]
 800ce5a:	2300      	movs	r3, #0
 800ce5c:	61fb      	str	r3, [r7, #28]
 800ce5e:	f107 030c 	add.w	r3, r7, #12
 800ce62:	2102      	movs	r1, #2
 800ce64:	4618      	mov	r0, r3
 800ce66:	f000 feb1 	bl	800dbcc <HAL_RCC_ClockConfig>
 800ce6a:	4603      	mov	r3, r0
 800ce6c:	2b00      	cmp	r3, #0
 800ce6e:	d001      	beq.n	800ce74 <SystemClock_Config+0xc4>
 800ce70:	f000 f808 	bl	800ce84 <Error_Handler>
 800ce74:	bf00      	nop
 800ce76:	3750      	adds	r7, #80	; 0x50
 800ce78:	46bd      	mov	sp, r7
 800ce7a:	bd80      	pop	{r7, pc}
 800ce7c:	40023800 	.word	0x40023800
 800ce80:	40007000 	.word	0x40007000

0800ce84 <Error_Handler>:
 800ce84:	b480      	push	{r7}
 800ce86:	af00      	add	r7, sp, #0
 800ce88:	b672      	cpsid	i
 800ce8a:	bf00      	nop
 800ce8c:	e7fe      	b.n	800ce8c <Error_Handler+0x8>
	...

0800ce90 <MX_SPI2_Init>:
 800ce90:	b580      	push	{r7, lr}
 800ce92:	af00      	add	r7, sp, #0
 800ce94:	4b15      	ldr	r3, [pc, #84]	; (800ceec <MX_SPI2_Init+0x5c>)
 800ce96:	4a16      	ldr	r2, [pc, #88]	; (800cef0 <MX_SPI2_Init+0x60>)
 800ce98:	601a      	str	r2, [r3, #0]
 800ce9a:	4b14      	ldr	r3, [pc, #80]	; (800ceec <MX_SPI2_Init+0x5c>)
 800ce9c:	2200      	movs	r2, #0
 800ce9e:	605a      	str	r2, [r3, #4]
 800cea0:	4b12      	ldr	r3, [pc, #72]	; (800ceec <MX_SPI2_Init+0x5c>)
 800cea2:	2200      	movs	r2, #0
 800cea4:	609a      	str	r2, [r3, #8]
 800cea6:	4b11      	ldr	r3, [pc, #68]	; (800ceec <MX_SPI2_Init+0x5c>)
 800cea8:	2200      	movs	r2, #0
 800ceaa:	60da      	str	r2, [r3, #12]
 800ceac:	4b0f      	ldr	r3, [pc, #60]	; (800ceec <MX_SPI2_Init+0x5c>)
 800ceae:	2200      	movs	r2, #0
 800ceb0:	611a      	str	r2, [r3, #16]
 800ceb2:	4b0e      	ldr	r3, [pc, #56]	; (800ceec <MX_SPI2_Init+0x5c>)
 800ceb4:	2200      	movs	r2, #0
 800ceb6:	615a      	str	r2, [r3, #20]
 800ceb8:	4b0c      	ldr	r3, [pc, #48]	; (800ceec <MX_SPI2_Init+0x5c>)
 800ceba:	f44f 7200 	mov.w	r2, #512	; 0x200
 800cebe:	619a      	str	r2, [r3, #24]
 800cec0:	4b0a      	ldr	r3, [pc, #40]	; (800ceec <MX_SPI2_Init+0x5c>)
 800cec2:	2200      	movs	r2, #0
 800cec4:	621a      	str	r2, [r3, #32]
 800cec6:	4b09      	ldr	r3, [pc, #36]	; (800ceec <MX_SPI2_Init+0x5c>)
 800cec8:	2200      	movs	r2, #0
 800ceca:	625a      	str	r2, [r3, #36]	; 0x24
 800cecc:	4b07      	ldr	r3, [pc, #28]	; (800ceec <MX_SPI2_Init+0x5c>)
 800cece:	2200      	movs	r2, #0
 800ced0:	629a      	str	r2, [r3, #40]	; 0x28
 800ced2:	4b06      	ldr	r3, [pc, #24]	; (800ceec <MX_SPI2_Init+0x5c>)
 800ced4:	220a      	movs	r2, #10
 800ced6:	62da      	str	r2, [r3, #44]	; 0x2c
 800ced8:	4804      	ldr	r0, [pc, #16]	; (800ceec <MX_SPI2_Init+0x5c>)
 800ceda:	f001 f823 	bl	800df24 <HAL_SPI_Init>
 800cede:	4603      	mov	r3, r0
 800cee0:	2b00      	cmp	r3, #0
 800cee2:	d001      	beq.n	800cee8 <MX_SPI2_Init+0x58>
 800cee4:	f7ff ffce 	bl	800ce84 <Error_Handler>
 800cee8:	bf00      	nop
 800ceea:	bd80      	pop	{r7, pc}
 800ceec:	20000028 	.word	0x20000028
 800cef0:	40003800 	.word	0x40003800

0800cef4 <HAL_SPI_MspInit>:
 800cef4:	b580      	push	{r7, lr}
 800cef6:	b08a      	sub	sp, #40	; 0x28
 800cef8:	af00      	add	r7, sp, #0
 800cefa:	6078      	str	r0, [r7, #4]
 800cefc:	f107 0314 	add.w	r3, r7, #20
 800cf00:	2200      	movs	r2, #0
 800cf02:	601a      	str	r2, [r3, #0]
 800cf04:	605a      	str	r2, [r3, #4]
 800cf06:	609a      	str	r2, [r3, #8]
 800cf08:	60da      	str	r2, [r3, #12]
 800cf0a:	611a      	str	r2, [r3, #16]
 800cf0c:	687b      	ldr	r3, [r7, #4]
 800cf0e:	681b      	ldr	r3, [r3, #0]
 800cf10:	4a19      	ldr	r2, [pc, #100]	; (800cf78 <HAL_SPI_MspInit+0x84>)
 800cf12:	4293      	cmp	r3, r2
 800cf14:	d12c      	bne.n	800cf70 <HAL_SPI_MspInit+0x7c>
 800cf16:	2300      	movs	r3, #0
 800cf18:	613b      	str	r3, [r7, #16]
 800cf1a:	4b18      	ldr	r3, [pc, #96]	; (800cf7c <HAL_SPI_MspInit+0x88>)
 800cf1c:	6c1b      	ldr	r3, [r3, #64]	; 0x40
 800cf1e:	4a17      	ldr	r2, [pc, #92]	; (800cf7c <HAL_SPI_MspInit+0x88>)
 800cf20:	f443 4380 	orr.w	r3, r3, #16384	; 0x4000
 800cf24:	6413      	str	r3, [r2, #64]	; 0x40
 800cf26:	4b15      	ldr	r3, [pc, #84]	; (800cf7c <HAL_SPI_MspInit+0x88>)
 800cf28:	6c1b      	ldr	r3, [r3, #64]	; 0x40
 800cf2a:	f403 4380 	and.w	r3, r3, #16384	; 0x4000
 800cf2e:	613b      	str	r3, [r7, #16]
 800cf30:	693b      	ldr	r3, [r7, #16]
 800cf32:	2300      	movs	r3, #0
 800cf34:	60fb      	str	r3, [r7, #12]
 800cf36:	4b11      	ldr	r3, [pc, #68]	; (800cf7c <HAL_SPI_MspInit+0x88>)
 800cf38:	6b1b      	ldr	r3, [r3, #48]	; 0x30
 800cf3a:	4a10      	ldr	r2, [pc, #64]	; (800cf7c <HAL_SPI_MspInit+0x88>)
 800cf3c:	f043 0302 	orr.w	r3, r3, #2
 800cf40:	6313      	str	r3, [r2, #48]	; 0x30
 800cf42:	4b0e      	ldr	r3, [pc, #56]	; (800cf7c <HAL_SPI_MspInit+0x88>)
 800cf44:	6b1b      	ldr	r3, [r3, #48]	; 0x30
 800cf46:	f003 0302 	and.w	r3, r3, #2
 800cf4a:	60fb      	str	r3, [r7, #12]
 800cf4c:	68fb      	ldr	r3, [r7, #12]
 800cf4e:	f44f 4344 	mov.w	r3, #50176	; 0xc400
 800cf52:	617b      	str	r3, [r7, #20]
 800cf54:	2302      	movs	r3, #2
 800cf56:	61bb      	str	r3, [r7, #24]
 800cf58:	2300      	movs	r3, #0
 800cf5a:	61fb      	str	r3, [r7, #28]
 800cf5c:	2303      	movs	r3, #3
 800cf5e:	623b      	str	r3, [r7, #32]
 800cf60:	2305      	movs	r3, #5
 800cf62:	627b      	str	r3, [r7, #36]	; 0x24
 800cf64:	f107 0314 	add.w	r3, r7, #20
 800cf68:	4619      	mov	r1, r3
 800cf6a:	4805      	ldr	r0, [pc, #20]	; (800cf80 <HAL_SPI_MspInit+0x8c>)
 800cf6c:	f000 fa18 	bl	800d3a0 <HAL_GPIO_Init>
 800cf70:	bf00      	nop
 800cf72:	3728      	adds	r7, #40	; 0x28
 800cf74:	46bd      	mov	sp, r7
 800cf76:	bd80      	pop	{r7, pc}
 800cf78:	40003800 	.word	0x40003800
 800cf7c:	40023800 	.word	0x40023800
 800cf80:	40020400 	.word	0x40020400

0800cf84 <HAL_MspInit>:
 800cf84:	b480      	push	{r7}
 800cf86:	b083      	sub	sp, #12
 800cf88:	af00      	add	r7, sp, #0
 800cf8a:	2300      	movs	r3, #0
 800cf8c:	607b      	str	r3, [r7, #4]
 800cf8e:	4b10      	ldr	r3, [pc, #64]	; (800cfd0 <HAL_MspInit+0x4c>)
 800cf90:	6c5b      	ldr	r3, [r3, #68]	; 0x44
 800cf92:	4a0f      	ldr	r2, [pc, #60]	; (800cfd0 <HAL_MspInit+0x4c>)
 800cf94:	f443 4380 	orr.w	r3, r3, #16384	; 0x4000
 800cf98:	6453      	str	r3, [r2, #68]	; 0x44
 800cf9a:	4b0d      	ldr	r3, [pc, #52]	; (800cfd0 <HAL_MspInit+0x4c>)
 800cf9c:	6c5b      	ldr	r3, [r3, #68]	; 0x44
 800cf9e:	f403 4380 	and.w	r3, r3, #16384	; 0x4000
 800cfa2:	607b      	str	r3, [r7, #4]
 800cfa4:	687b      	ldr	r3, [r7, #4]
 800cfa6:	2300      	movs	r3, #0
 800cfa8:	603b      	str	r3, [r7, #0]
 800cfaa:	4b09      	ldr	r3, [pc, #36]	; (800cfd0 <HAL_MspInit+0x4c>)
 800cfac:	6c1b      	ldr	r3, [r3, #64]	; 0x40
 800cfae:	4a08      	ldr	r2, [pc, #32]	; (800cfd0 <HAL_MspInit+0x4c>)
 800cfb0:	f043 5380 	orr.w	r3, r3, #268435456	; 0x10000000
 800cfb4:	6413      	str	r3, [r2, #64]	; 0x40
 800cfb6:	4b06      	ldr	r3, [pc, #24]	; (800cfd0 <HAL_MspInit+0x4c>)
 800cfb8:	6c1b      	ldr	r3, [r3, #64]	; 0x40
 800cfba:	f003 5380 	and.w	r3, r3, #268435456	; 0x10000000
 800cfbe:	603b      	str	r3, [r7, #0]
 800cfc0:	683b      	ldr	r3, [r7, #0]
 800cfc2:	bf00      	nop
 800cfc4:	370c      	adds	r7, #12
 800cfc6:	46bd      	mov	sp, r7
 800cfc8:	f85d 7b04 	ldr.w	r7, [sp], #4
 800cfcc:	4770      	bx	lr
 800cfce:	bf00      	nop
 800cfd0:	40023800 	.word	0x40023800

0800cfd4 <NMI_Handler>:
 800cfd4:	b480      	push	{r7}
 800cfd6:	af00      	add	r7, sp, #0
 800cfd8:	e7fe      	b.n	800cfd8 <NMI_Handler+0x4>

0800cfda <HardFault_Handler>:
 800cfda:	b480      	push	{r7}
 800cfdc:	af00      	add	r7, sp, #0
 800cfde:	e7fe      	b.n	800cfde <HardFault_Handler+0x4>

0800cfe0 <MemManage_Handler>:
 800cfe0:	b480      	push	{r7}
 800cfe2:	af00      	add	r7, sp, #0
 800cfe4:	e7fe      	b.n	800cfe4 <MemManage_Handler+0x4>

0800cfe6 <BusFault_Handler>:
 800cfe6:	b480      	push	{r7}
 800cfe8:	af00      	add	r7, sp, #0
 800cfea:	e7fe      	b.n	800cfea <BusFault_Handler+0x4>

0800cfec <UsageFault_Handler>:
 800cfec:	b480      	push	{r7}
 800cfee:	af00      	add	r7, sp, #0
 800cff0:	e7fe      	b.n	800cff0 <UsageFault_Handler+0x4>

0800cff2 <SVC_Handler>:
 800cff2:	b480      	push	{r7}
 800cff4:	af00      	add	r7, sp, #0
 800cff6:	bf00      	nop
 800cff8:	46bd      	mov	sp, r7
 800cffa:	f85d 7b04 	ldr.w	r7, [sp], #4
 800cffe:	4770      	bx	lr

0800d000 <DebugMon_Handler>:
 800d000:	b480      	push	{r7}
 800d002:	af00      	add	r7, sp, #0
 800d004:	bf00      	nop
 800d006:	46bd      	mov	sp, r7
 800d008:	f85d 7b04 	ldr.w	r7, [sp], #4
 800d00c:	4770      	bx	lr

0800d00e <PendSV_Handler>:
 800d00e:	b480      	push	{r7}
 800d010:	af00      	add	r7, sp, #0
 800d012:	bf00      	nop
 800d014:	46bd      	mov	sp, r7
 800d016:	f85d 7b04 	ldr.w	r7, [sp], #4
 800d01a:	4770      	bx	lr

0800d01c <SysTick_Handler>:
 800d01c:	b580      	push	{r7, lr}
 800d01e:	af00      	add	r7, sp, #0
 800d020:	f000 f894 	bl	800d14c <HAL_IncTick>
 800d024:	bf00      	nop
 800d026:	bd80      	pop	{r7, pc}

0800d028 <SystemInit>:
 800d028:	b480      	push	{r7}
 800d02a:	af00      	add	r7, sp, #0
 800d02c:	4b07      	ldr	r3, [pc, #28]	; (800d04c <SystemInit+0x24>)
 800d02e:	f8d3 3088 	ldr.w	r3, [r3, #136]	; 0x88
 800d032:	4a06      	ldr	r2, [pc, #24]	; (800d04c <SystemInit+0x24>)
 800d034:	f443 0370 	orr.w	r3, r3, #15728640	; 0xf00000
 800d038:	f8c2 3088 	str.w	r3, [r2, #136]	; 0x88
 800d03c:	4b03      	ldr	r3, [pc, #12]	; (800d04c <SystemInit+0x24>)
 800d03e:	4a04      	ldr	r2, [pc, #16]	; (800d050 <SystemInit+0x28>)
 800d040:	609a      	str	r2, [r3, #8]
 800d042:	bf00      	nop
 800d044:	46bd      	mov	sp, r7
 800d046:	f85d 7b04 	ldr.w	r7, [sp], #4
 800d04a:	4770      	bx	lr
 800d04c:	e000ed00 	.word	0xe000ed00
 800d050:	0800c800 	.word	0x0800c800

0800d054 <Reset_Handler>:
 800d054:	f8df d034 	ldr.w	sp, [pc, #52]	; 800d08c <LoopFillZerobss+0x12>
 800d058:	480d      	ldr	r0, [pc, #52]	; (800d090 <LoopFillZerobss+0x16>)
 800d05a:	490e      	ldr	r1, [pc, #56]	; (800d094 <LoopFillZerobss+0x1a>)
 800d05c:	4a0e      	ldr	r2, [pc, #56]	; (800d098 <LoopFillZerobss+0x1e>)
 800d05e:	2300      	movs	r3, #0
 800d060:	e002      	b.n	800d068 <LoopCopyDataInit>

0800d062 <CopyDataInit>:
 800d062:	58d4      	ldr	r4, [r2, r3]
 800d064:	50c4      	str	r4, [r0, r3]
 800d066:	3304      	adds	r3, #4

0800d068 <LoopCopyDataInit>:
 800d068:	18c4      	adds	r4, r0, r3
 800d06a:	428c      	cmp	r4, r1
 800d06c:	d3f9      	bcc.n	800d062 <CopyDataInit>
 800d06e:	4a0b      	ldr	r2, [pc, #44]	; (800d09c <LoopFillZerobss+0x22>)
 800d070:	4c0b      	ldr	r4, [pc, #44]	; (800d0a0 <LoopFillZerobss+0x26>)
 800d072:	2300      	movs	r3, #0
 800d074:	e001      	b.n	800d07a <LoopFillZerobss>

0800d076 <FillZerobss>:
 800d076:	6013      	str	r3, [r2, #0]
 800d078:	3204      	adds	r2, #4

0800d07a <LoopFillZerobss>:
 800d07a:	42a2      	cmp	r2, r4
 800d07c:	d3fb      	bcc.n	800d076 <FillZerobss>
 800d07e:	f7ff ffd3 	bl	800d028 <SystemInit>
 800d082:	f000 ffe1 	bl	800e048 <__libc_init_array>
 800d086:	f7ff fe73 	bl	800cd70 <main>
 800d08a:	4770      	bx	lr
 800d08c:	20010000 	.word	0x20010000
 800d090:	20000000 	.word	0x20000000
 800d094:	2000000c 	.word	0x2000000c
 800d098:	0800e0c8 	.word	0x0800e0c8
 800d09c:	2000000c 	.word	0x2000000c
 800d0a0:	20000084 	.word	0x20000084

0800d0a4 <ADC_IRQHandler>:
 800d0a4:	e7fe      	b.n	800d0a4 <ADC_IRQHandler>
	...

0800d0a8 <HAL_Init>:
 800d0a8:	b580      	push	{r7, lr}
 800d0aa:	af00      	add	r7, sp, #0
 800d0ac:	4b0e      	ldr	r3, [pc, #56]	; (800d0e8 <HAL_Init+0x40>)
 800d0ae:	681b      	ldr	r3, [r3, #0]
 800d0b0:	4a0d      	ldr	r2, [pc, #52]	; (800d0e8 <HAL_Init+0x40>)
 800d0b2:	f443 7300 	orr.w	r3, r3, #512	; 0x200
 800d0b6:	6013      	str	r3, [r2, #0]
 800d0b8:	4b0b      	ldr	r3, [pc, #44]	; (800d0e8 <HAL_Init+0x40>)
 800d0ba:	681b      	ldr	r3, [r3, #0]
 800d0bc:	4a0a      	ldr	r2, [pc, #40]	; (800d0e8 <HAL_Init+0x40>)
 800d0be:	f443 6380 	orr.w	r3, r3, #1024	; 0x400
 800d0c2:	6013      	str	r3, [r2, #0]
 800d0c4:	4b08      	ldr	r3, [pc, #32]	; (800d0e8 <HAL_Init+0x40>)
 800d0c6:	681b      	ldr	r3, [r3, #0]
 800d0c8:	4a07      	ldr	r2, [pc, #28]	; (800d0e8 <HAL_Init+0x40>)
 800d0ca:	f443 7380 	orr.w	r3, r3, #256	; 0x100
 800d0ce:	6013      	str	r3, [r2, #0]
 800d0d0:	2003      	movs	r0, #3
 800d0d2:	f000 f931 	bl	800d338 <HAL_NVIC_SetPriorityGrouping>
 800d0d6:	200f      	movs	r0, #15
 800d0d8:	f000 f808 	bl	800d0ec <HAL_InitTick>
 800d0dc:	f7ff ff52 	bl	800cf84 <HAL_MspInit>
 800d0e0:	2300      	movs	r3, #0
 800d0e2:	4618      	mov	r0, r3
 800d0e4:	bd80      	pop	{r7, pc}
 800d0e6:	bf00      	nop
 800d0e8:	40023c00 	.word	0x40023c00

0800d0ec <HAL_InitTick>:
 800d0ec:	b580      	push	{r7, lr}
 800d0ee:	b082      	sub	sp, #8
 800d0f0:	af00      	add	r7, sp, #0
 800d0f2:	6078      	str	r0, [r7, #4]
 800d0f4:	4b12      	ldr	r3, [pc, #72]	; (800d140 <HAL_InitTick+0x54>)
 800d0f6:	681a      	ldr	r2, [r3, #0]
 800d0f8:	4b12      	ldr	r3, [pc, #72]	; (800d144 <HAL_InitTick+0x58>)
 800d0fa:	781b      	ldrb	r3, [r3, #0]
 800d0fc:	4619      	mov	r1, r3
 800d0fe:	f44f 737a 	mov.w	r3, #1000	; 0x3e8
 800d102:	fbb3 f3f1 	udiv	r3, r3, r1
 800d106:	fbb2 f3f3 	udiv	r3, r2, r3
 800d10a:	4618      	mov	r0, r3
 800d10c:	f000 f93b 	bl	800d386 <HAL_SYSTICK_Config>
 800d110:	4603      	mov	r3, r0
 800d112:	2b00      	cmp	r3, #0
 800d114:	d001      	beq.n	800d11a <HAL_InitTick+0x2e>
 800d116:	2301      	movs	r3, #1
 800d118:	e00e      	b.n	800d138 <HAL_InitTick+0x4c>
 800d11a:	687b      	ldr	r3, [r7, #4]
 800d11c:	2b0f      	cmp	r3, #15
 800d11e:	d80a      	bhi.n	800d136 <HAL_InitTick+0x4a>
 800d120:	2200      	movs	r2, #0
 800d122:	6879      	ldr	r1, [r7, #4]
 800d124:	f04f 30ff 	mov.w	r0, #4294967295
 800d128:	f000 f911 	bl	800d34e <HAL_NVIC_SetPriority>
 800d12c:	4a06      	ldr	r2, [pc, #24]	; (800d148 <HAL_InitTick+0x5c>)
 800d12e:	687b      	ldr	r3, [r7, #4]
 800d130:	6013      	str	r3, [r2, #0]
 800d132:	2300      	movs	r3, #0
 800d134:	e000      	b.n	800d138 <HAL_InitTick+0x4c>
 800d136:	2301      	movs	r3, #1
 800d138:	4618      	mov	r0, r3
 800d13a:	3708      	adds	r7, #8
 800d13c:	46bd      	mov	sp, r7
 800d13e:	bd80      	pop	{r7, pc}
 800d140:	20000000 	.word	0x20000000
 800d144:	20000008 	.word	0x20000008
 800d148:	20000004 	.word	0x20000004

0800d14c <HAL_IncTick>:
 800d14c:	b480      	push	{r7}
 800d14e:	af00      	add	r7, sp, #0
 800d150:	4b06      	ldr	r3, [pc, #24]	; (800d16c <HAL_IncTick+0x20>)
 800d152:	781b      	ldrb	r3, [r3, #0]
 800d154:	461a      	mov	r2, r3
 800d156:	4b06      	ldr	r3, [pc, #24]	; (800d170 <HAL_IncTick+0x24>)
 800d158:	681b      	ldr	r3, [r3, #0]
 800d15a:	4413      	add	r3, r2
 800d15c:	4a04      	ldr	r2, [pc, #16]	; (800d170 <HAL_IncTick+0x24>)
 800d15e:	6013      	str	r3, [r2, #0]
 800d160:	bf00      	nop
 800d162:	46bd      	mov	sp, r7
 800d164:	f85d 7b04 	ldr.w	r7, [sp], #4
 800d168:	4770      	bx	lr
 800d16a:	bf00      	nop
 800d16c:	20000008 	.word	0x20000008
 800d170:	20000080 	.word	0x20000080

0800d174 <HAL_GetTick>:
 800d174:	b480      	push	{r7}
 800d176:	af00      	add	r7, sp, #0
 800d178:	4b03      	ldr	r3, [pc, #12]	; (800d188 <HAL_GetTick+0x14>)
 800d17a:	681b      	ldr	r3, [r3, #0]
 800d17c:	4618      	mov	r0, r3
 800d17e:	46bd      	mov	sp, r7
 800d180:	f85d 7b04 	ldr.w	r7, [sp], #4
 800d184:	4770      	bx	lr
 800d186:	bf00      	nop
 800d188:	20000080 	.word	0x20000080

0800d18c <HAL_Delay>:
 800d18c:	b580      	push	{r7, lr}
 800d18e:	b084      	sub	sp, #16
 800d190:	af00      	add	r7, sp, #0
 800d192:	6078      	str	r0, [r7, #4]
 800d194:	f7ff ffee 	bl	800d174 <HAL_GetTick>
 800d198:	60b8      	str	r0, [r7, #8]
 800d19a:	687b      	ldr	r3, [r7, #4]
 800d19c:	60fb      	str	r3, [r7, #12]
 800d19e:	68fb      	ldr	r3, [r7, #12]
 800d1a0:	f1b3 3fff 	cmp.w	r3, #4294967295
 800d1a4:	d005      	beq.n	800d1b2 <HAL_Delay+0x26>
 800d1a6:	4b0a      	ldr	r3, [pc, #40]	; (800d1d0 <HAL_Delay+0x44>)
 800d1a8:	781b      	ldrb	r3, [r3, #0]
 800d1aa:	461a      	mov	r2, r3
 800d1ac:	68fb      	ldr	r3, [r7, #12]
 800d1ae:	4413      	add	r3, r2
 800d1b0:	60fb      	str	r3, [r7, #12]
 800d1b2:	bf00      	nop
 800d1b4:	f7ff ffde 	bl	800d174 <HAL_GetTick>
 800d1b8:	4602      	mov	r2, r0
 800d1ba:	68bb      	ldr	r3, [r7, #8]
 800d1bc:	1ad3      	subs	r3, r2, r3
 800d1be:	68fa      	ldr	r2, [r7, #12]
 800d1c0:	429a      	cmp	r2, r3
 800d1c2:	d8f7      	bhi.n	800d1b4 <HAL_Delay+0x28>
 800d1c4:	bf00      	nop
 800d1c6:	bf00      	nop
 800d1c8:	3710      	adds	r7, #16
 800d1ca:	46bd      	mov	sp, r7
 800d1cc:	bd80      	pop	{r7, pc}
 800d1ce:	bf00      	nop
 800d1d0:	20000008 	.word	0x20000008

0800d1d4 <__NVIC_SetPriorityGrouping>:
 800d1d4:	b480      	push	{r7}
 800d1d6:	b085      	sub	sp, #20
 800d1d8:	af00      	add	r7, sp, #0
 800d1da:	6078      	str	r0, [r7, #4]
 800d1dc:	687b      	ldr	r3, [r7, #4]
 800d1de:	f003 0307 	and.w	r3, r3, #7
 800d1e2:	60fb      	str	r3, [r7, #12]
 800d1e4:	4b0c      	ldr	r3, [pc, #48]	; (800d218 <__NVIC_SetPriorityGrouping+0x44>)
 800d1e6:	68db      	ldr	r3, [r3, #12]
 800d1e8:	60bb      	str	r3, [r7, #8]
 800d1ea:	68ba      	ldr	r2, [r7, #8]
 800d1ec:	f64f 03ff 	movw	r3, #63743	; 0xf8ff
 800d1f0:	4013      	ands	r3, r2
 800d1f2:	60bb      	str	r3, [r7, #8]
 800d1f4:	68fb      	ldr	r3, [r7, #12]
 800d1f6:	021a      	lsls	r2, r3, #8
 800d1f8:	68bb      	ldr	r3, [r7, #8]
 800d1fa:	4313      	orrs	r3, r2
 800d1fc:	f043 63bf 	orr.w	r3, r3, #100139008	; 0x5f80000
 800d200:	f443 3300 	orr.w	r3, r3, #131072	; 0x20000
 800d204:	60bb      	str	r3, [r7, #8]
 800d206:	4a04      	ldr	r2, [pc, #16]	; (800d218 <__NVIC_SetPriorityGrouping+0x44>)
 800d208:	68bb      	ldr	r3, [r7, #8]
 800d20a:	60d3      	str	r3, [r2, #12]
 800d20c:	bf00      	nop
 800d20e:	3714      	adds	r7, #20
 800d210:	46bd      	mov	sp, r7
 800d212:	f85d 7b04 	ldr.w	r7, [sp], #4
 800d216:	4770      	bx	lr
 800d218:	e000ed00 	.word	0xe000ed00

0800d21c <__NVIC_GetPriorityGrouping>:
 800d21c:	b480      	push	{r7}
 800d21e:	af00      	add	r7, sp, #0
 800d220:	4b04      	ldr	r3, [pc, #16]	; (800d234 <__NVIC_GetPriorityGrouping+0x18>)
 800d222:	68db      	ldr	r3, [r3, #12]
 800d224:	0a1b      	lsrs	r3, r3, #8
 800d226:	f003 0307 	and.w	r3, r3, #7
 800d22a:	4618      	mov	r0, r3
 800d22c:	46bd      	mov	sp, r7
 800d22e:	f85d 7b04 	ldr.w	r7, [sp], #4
 800d232:	4770      	bx	lr
 800d234:	e000ed00 	.word	0xe000ed00

0800d238 <__NVIC_SetPriority>:
 800d238:	b480      	push	{r7}
 800d23a:	b083      	sub	sp, #12
 800d23c:	af00      	add	r7, sp, #0
 800d23e:	4603      	mov	r3, r0
 800d240:	6039      	str	r1, [r7, #0]
 800d242:	71fb      	strb	r3, [r7, #7]
 800d244:	f997 3007 	ldrsb.w	r3, [r7, #7]
 800d248:	2b00      	cmp	r3, #0
 800d24a:	db0a      	blt.n	800d262 <__NVIC_SetPriority+0x2a>
 800d24c:	683b      	ldr	r3, [r7, #0]
 800d24e:	b2da      	uxtb	r2, r3
 800d250:	490c      	ldr	r1, [pc, #48]	; (800d284 <__NVIC_SetPriority+0x4c>)
 800d252:	f997 3007 	ldrsb.w	r3, [r7, #7]
 800d256:	0112      	lsls	r2, r2, #4
 800d258:	b2d2      	uxtb	r2, r2
 800d25a:	440b      	add	r3, r1
 800d25c:	f883 2300 	strb.w	r2, [r3, #768]	; 0x300
 800d260:	e00a      	b.n	800d278 <__NVIC_SetPriority+0x40>
 800d262:	683b      	ldr	r3, [r7, #0]
 800d264:	b2da      	uxtb	r2, r3
 800d266:	4908      	ldr	r1, [pc, #32]	; (800d288 <__NVIC_SetPriority+0x50>)
 800d268:	79fb      	ldrb	r3, [r7, #7]
 800d26a:	f003 030f 	and.w	r3, r3, #15
 800d26e:	3b04      	subs	r3, #4
 800d270:	0112      	lsls	r2, r2, #4
 800d272:	b2d2      	uxtb	r2, r2
 800d274:	440b      	add	r3, r1
 800d276:	761a      	strb	r2, [r3, #24]
 800d278:	bf00      	nop
 800d27a:	370c      	adds	r7, #12
 800d27c:	46bd      	mov	sp, r7
 800d27e:	f85d 7b04 	ldr.w	r7, [sp], #4
 800d282:	4770      	bx	lr
 800d284:	e000e100 	.word	0xe000e100
 800d288:	e000ed00 	.word	0xe000ed00

0800d28c <NVIC_EncodePriority>:
 800d28c:	b480      	push	{r7}
 800d28e:	b089      	sub	sp, #36	; 0x24
 800d290:	af00      	add	r7, sp, #0
 800d292:	60f8      	str	r0, [r7, #12]
 800d294:	60b9      	str	r1, [r7, #8]
 800d296:	607a      	str	r2, [r7, #4]
 800d298:	68fb      	ldr	r3, [r7, #12]
 800d29a:	f003 0307 	and.w	r3, r3, #7
 800d29e:	61fb      	str	r3, [r7, #28]
 800d2a0:	69fb      	ldr	r3, [r7, #28]
 800d2a2:	f1c3 0307 	rsb	r3, r3, #7
 800d2a6:	2b04      	cmp	r3, #4
 800d2a8:	bf28      	it	cs
 800d2aa:	2304      	movcs	r3, #4
 800d2ac:	61bb      	str	r3, [r7, #24]
 800d2ae:	69fb      	ldr	r3, [r7, #28]
 800d2b0:	3304      	adds	r3, #4
 800d2b2:	2b06      	cmp	r3, #6
 800d2b4:	d902      	bls.n	800d2bc <NVIC_EncodePriority+0x30>
 800d2b6:	69fb      	ldr	r3, [r7, #28]
 800d2b8:	3b03      	subs	r3, #3
 800d2ba:	e000      	b.n	800d2be <NVIC_EncodePriority+0x32>
 800d2bc:	2300      	movs	r3, #0
 800d2be:	617b      	str	r3, [r7, #20]
 800d2c0:	f04f 32ff 	mov.w	r2, #4294967295
 800d2c4:	69bb      	ldr	r3, [r7, #24]
 800d2c6:	fa02 f303 	lsl.w	r3, r2, r3
 800d2ca:	43da      	mvns	r2, r3
 800d2cc:	68bb      	ldr	r3, [r7, #8]
 800d2ce:	401a      	ands	r2, r3
 800d2d0:	697b      	ldr	r3, [r7, #20]
 800d2d2:	409a      	lsls	r2, r3
 800d2d4:	f04f 31ff 	mov.w	r1, #4294967295
 800d2d8:	697b      	ldr	r3, [r7, #20]
 800d2da:	fa01 f303 	lsl.w	r3, r1, r3
 800d2de:	43d9      	mvns	r1, r3
 800d2e0:	687b      	ldr	r3, [r7, #4]
 800d2e2:	400b      	ands	r3, r1
 800d2e4:	4313      	orrs	r3, r2
 800d2e6:	4618      	mov	r0, r3
 800d2e8:	3724      	adds	r7, #36	; 0x24
 800d2ea:	46bd      	mov	sp, r7
 800d2ec:	f85d 7b04 	ldr.w	r7, [sp], #4
 800d2f0:	4770      	bx	lr
	...

0800d2f4 <SysTick_Config>:
 800d2f4:	b580      	push	{r7, lr}
 800d2f6:	b082      	sub	sp, #8
 800d2f8:	af00      	add	r7, sp, #0
 800d2fa:	6078      	str	r0, [r7, #4]
 800d2fc:	687b      	ldr	r3, [r7, #4]
 800d2fe:	3b01      	subs	r3, #1
 800d300:	f1b3 7f80 	cmp.w	r3, #16777216	; 0x1000000
 800d304:	d301      	bcc.n	800d30a <SysTick_Config+0x16>
 800d306:	2301      	movs	r3, #1
 800d308:	e00f      	b.n	800d32a <SysTick_Config+0x36>
 800d30a:	4a0a      	ldr	r2, [pc, #40]	; (800d334 <SysTick_Config+0x40>)
 800d30c:	687b      	ldr	r3, [r7, #4]
 800d30e:	3b01      	subs	r3, #1
 800d310:	6053      	str	r3, [r2, #4]
 800d312:	210f      	movs	r1, #15
 800d314:	f04f 30ff 	mov.w	r0, #4294967295
 800d318:	f7ff ff8e 	bl	800d238 <__NVIC_SetPriority>
 800d31c:	4b05      	ldr	r3, [pc, #20]	; (800d334 <SysTick_Config+0x40>)
 800d31e:	2200      	movs	r2, #0
 800d320:	609a      	str	r2, [r3, #8]
 800d322:	4b04      	ldr	r3, [pc, #16]	; (800d334 <SysTick_Config+0x40>)
 800d324:	2207      	movs	r2, #7
 800d326:	601a      	str	r2, [r3, #0]
 800d328:	2300      	movs	r3, #0
 800d32a:	4618      	mov	r0, r3
 800d32c:	3708      	adds	r7, #8
 800d32e:	46bd      	mov	sp, r7
 800d330:	bd80      	pop	{r7, pc}
 800d332:	bf00      	nop
 800d334:	e000e010 	.word	0xe000e010

0800d338 <HAL_NVIC_SetPriorityGrouping>:
 800d338:	b580      	push	{r7, lr}
 800d33a:	b082      	sub	sp, #8
 800d33c:	af00      	add	r7, sp, #0
 800d33e:	6078      	str	r0, [r7, #4]
 800d340:	6878      	ldr	r0, [r7, #4]
 800d342:	f7ff ff47 	bl	800d1d4 <__NVIC_SetPriorityGrouping>
 800d346:	bf00      	nop
 800d348:	3708      	adds	r7, #8
 800d34a:	46bd      	mov	sp, r7
 800d34c:	bd80      	pop	{r7, pc}

0800d34e <HAL_NVIC_SetPriority>:
 800d34e:	b580      	push	{r7, lr}
 800d350:	b086      	sub	sp, #24
 800d352:	af00      	add	r7, sp, #0
 800d354:	4603      	mov	r3, r0
 800d356:	60b9      	str	r1, [r7, #8]
 800d358:	607a      	str	r2, [r7, #4]
 800d35a:	73fb      	strb	r3, [r7, #15]
 800d35c:	2300      	movs	r3, #0
 800d35e:	617b      	str	r3, [r7, #20]
 800d360:	f7ff ff5c 	bl	800d21c <__NVIC_GetPriorityGrouping>
 800d364:	6178      	str	r0, [r7, #20]
 800d366:	687a      	ldr	r2, [r7, #4]
 800d368:	68b9      	ldr	r1, [r7, #8]
 800d36a:	6978      	ldr	r0, [r7, #20]
 800d36c:	f7ff ff8e 	bl	800d28c <NVIC_EncodePriority>
 800d370:	4602      	mov	r2, r0
 800d372:	f997 300f 	ldrsb.w	r3, [r7, #15]
 800d376:	4611      	mov	r1, r2
 800d378:	4618      	mov	r0, r3
 800d37a:	f7ff ff5d 	bl	800d238 <__NVIC_SetPriority>
 800d37e:	bf00      	nop
 800d380:	3718      	adds	r7, #24
 800d382:	46bd      	mov	sp, r7
 800d384:	bd80      	pop	{r7, pc}

0800d386 <HAL_SYSTICK_Config>:
 800d386:	b580      	push	{r7, lr}
 800d388:	b082      	sub	sp, #8
 800d38a:	af00      	add	r7, sp, #0
 800d38c:	6078      	str	r0, [r7, #4]
 800d38e:	6878      	ldr	r0, [r7, #4]
 800d390:	f7ff ffb0 	bl	800d2f4 <SysTick_Config>
 800d394:	4603      	mov	r3, r0
 800d396:	4618      	mov	r0, r3
 800d398:	3708      	adds	r7, #8
 800d39a:	46bd      	mov	sp, r7
 800d39c:	bd80      	pop	{r7, pc}
	...

0800d3a0 <HAL_GPIO_Init>:
 800d3a0:	b480      	push	{r7}
 800d3a2:	b089      	sub	sp, #36	; 0x24
 800d3a4:	af00      	add	r7, sp, #0
 800d3a6:	6078      	str	r0, [r7, #4]
 800d3a8:	6039      	str	r1, [r7, #0]
 800d3aa:	2300      	movs	r3, #0
 800d3ac:	617b      	str	r3, [r7, #20]
 800d3ae:	2300      	movs	r3, #0
 800d3b0:	613b      	str	r3, [r7, #16]
 800d3b2:	2300      	movs	r3, #0
 800d3b4:	61bb      	str	r3, [r7, #24]
 800d3b6:	2300      	movs	r3, #0
 800d3b8:	61fb      	str	r3, [r7, #28]
 800d3ba:	e159      	b.n	800d670 <HAL_GPIO_Init+0x2d0>
 800d3bc:	2201      	movs	r2, #1
 800d3be:	69fb      	ldr	r3, [r7, #28]
 800d3c0:	fa02 f303 	lsl.w	r3, r2, r3
 800d3c4:	617b      	str	r3, [r7, #20]
 800d3c6:	683b      	ldr	r3, [r7, #0]
 800d3c8:	681b      	ldr	r3, [r3, #0]
 800d3ca:	697a      	ldr	r2, [r7, #20]
 800d3cc:	4013      	ands	r3, r2
 800d3ce:	613b      	str	r3, [r7, #16]
 800d3d0:	693a      	ldr	r2, [r7, #16]
 800d3d2:	697b      	ldr	r3, [r7, #20]
 800d3d4:	429a      	cmp	r2, r3
 800d3d6:	f040 8148 	bne.w	800d66a <HAL_GPIO_Init+0x2ca>
 800d3da:	683b      	ldr	r3, [r7, #0]
 800d3dc:	685b      	ldr	r3, [r3, #4]
 800d3de:	f003 0303 	and.w	r3, r3, #3
 800d3e2:	2b01      	cmp	r3, #1
 800d3e4:	d005      	beq.n	800d3f2 <HAL_GPIO_Init+0x52>
 800d3e6:	683b      	ldr	r3, [r7, #0]
 800d3e8:	685b      	ldr	r3, [r3, #4]
 800d3ea:	f003 0303 	and.w	r3, r3, #3
 800d3ee:	2b02      	cmp	r3, #2
 800d3f0:	d130      	bne.n	800d454 <HAL_GPIO_Init+0xb4>
 800d3f2:	687b      	ldr	r3, [r7, #4]
 800d3f4:	689b      	ldr	r3, [r3, #8]
 800d3f6:	61bb      	str	r3, [r7, #24]
 800d3f8:	69fb      	ldr	r3, [r7, #28]
 800d3fa:	005b      	lsls	r3, r3, #1
 800d3fc:	2203      	movs	r2, #3
 800d3fe:	fa02 f303 	lsl.w	r3, r2, r3
 800d402:	43db      	mvns	r3, r3
 800d404:	69ba      	ldr	r2, [r7, #24]
 800d406:	4013      	ands	r3, r2
 800d408:	61bb      	str	r3, [r7, #24]
 800d40a:	683b      	ldr	r3, [r7, #0]
 800d40c:	68da      	ldr	r2, [r3, #12]
 800d40e:	69fb      	ldr	r3, [r7, #28]
 800d410:	005b      	lsls	r3, r3, #1
 800d412:	fa02 f303 	lsl.w	r3, r2, r3
 800d416:	69ba      	ldr	r2, [r7, #24]
 800d418:	4313      	orrs	r3, r2
 800d41a:	61bb      	str	r3, [r7, #24]
 800d41c:	687b      	ldr	r3, [r7, #4]
 800d41e:	69ba      	ldr	r2, [r7, #24]
 800d420:	609a      	str	r2, [r3, #8]
 800d422:	687b      	ldr	r3, [r7, #4]
 800d424:	685b      	ldr	r3, [r3, #4]
 800d426:	61bb      	str	r3, [r7, #24]
 800d428:	2201      	movs	r2, #1
 800d42a:	69fb      	ldr	r3, [r7, #28]
 800d42c:	fa02 f303 	lsl.w	r3, r2, r3
 800d430:	43db      	mvns	r3, r3
 800d432:	69ba      	ldr	r2, [r7, #24]
 800d434:	4013      	ands	r3, r2
 800d436:	61bb      	str	r3, [r7, #24]
 800d438:	683b      	ldr	r3, [r7, #0]
 800d43a:	685b      	ldr	r3, [r3, #4]
 800d43c:	091b      	lsrs	r3, r3, #4
 800d43e:	f003 0201 	and.w	r2, r3, #1
 800d442:	69fb      	ldr	r3, [r7, #28]
 800d444:	fa02 f303 	lsl.w	r3, r2, r3
 800d448:	69ba      	ldr	r2, [r7, #24]
 800d44a:	4313      	orrs	r3, r2
 800d44c:	61bb      	str	r3, [r7, #24]
 800d44e:	687b      	ldr	r3, [r7, #4]
 800d450:	69ba      	ldr	r2, [r7, #24]
 800d452:	605a      	str	r2, [r3, #4]
 800d454:	683b      	ldr	r3, [r7, #0]
 800d456:	685b      	ldr	r3, [r3, #4]
 800d458:	f003 0303 	and.w	r3, r3, #3
 800d45c:	2b03      	cmp	r3, #3
 800d45e:	d017      	beq.n	800d490 <HAL_GPIO_Init+0xf0>
 800d460:	687b      	ldr	r3, [r7, #4]
 800d462:	68db      	ldr	r3, [r3, #12]
 800d464:	61bb      	str	r3, [r7, #24]
 800d466:	69fb      	ldr	r3, [r7, #28]
 800d468:	005b      	lsls	r3, r3, #1
 800d46a:	2203      	movs	r2, #3
 800d46c:	fa02 f303 	lsl.w	r3, r2, r3
 800d470:	43db      	mvns	r3, r3
 800d472:	69ba      	ldr	r2, [r7, #24]
 800d474:	4013      	ands	r3, r2
 800d476:	61bb      	str	r3, [r7, #24]
 800d478:	683b      	ldr	r3, [r7, #0]
 800d47a:	689a      	ldr	r2, [r3, #8]
 800d47c:	69fb      	ldr	r3, [r7, #28]
 800d47e:	005b      	lsls	r3, r3, #1
 800d480:	fa02 f303 	lsl.w	r3, r2, r3
 800d484:	69ba      	ldr	r2, [r7, #24]
 800d486:	4313      	orrs	r3, r2
 800d488:	61bb      	str	r3, [r7, #24]
 800d48a:	687b      	ldr	r3, [r7, #4]
 800d48c:	69ba      	ldr	r2, [r7, #24]
 800d48e:	60da      	str	r2, [r3, #12]
 800d490:	683b      	ldr	r3, [r7, #0]
 800d492:	685b      	ldr	r3, [r3, #4]
 800d494:	f003 0303 	and.w	r3, r3, #3
 800d498:	2b02      	cmp	r3, #2
 800d49a:	d123      	bne.n	800d4e4 <HAL_GPIO_Init+0x144>
 800d49c:	69fb      	ldr	r3, [r7, #28]
 800d49e:	08da      	lsrs	r2, r3, #3
 800d4a0:	687b      	ldr	r3, [r7, #4]
 800d4a2:	3208      	adds	r2, #8
 800d4a4:	f853 3022 	ldr.w	r3, [r3, r2, lsl #2]
 800d4a8:	61bb      	str	r3, [r7, #24]
 800d4aa:	69fb      	ldr	r3, [r7, #28]
 800d4ac:	f003 0307 	and.w	r3, r3, #7
 800d4b0:	009b      	lsls	r3, r3, #2
 800d4b2:	220f      	movs	r2, #15
 800d4b4:	fa02 f303 	lsl.w	r3, r2, r3
 800d4b8:	43db      	mvns	r3, r3
 800d4ba:	69ba      	ldr	r2, [r7, #24]
 800d4bc:	4013      	ands	r3, r2
 800d4be:	61bb      	str	r3, [r7, #24]
 800d4c0:	683b      	ldr	r3, [r7, #0]
 800d4c2:	691a      	ldr	r2, [r3, #16]
 800d4c4:	69fb      	ldr	r3, [r7, #28]
 800d4c6:	f003 0307 	and.w	r3, r3, #7
 800d4ca:	009b      	lsls	r3, r3, #2
 800d4cc:	fa02 f303 	lsl.w	r3, r2, r3
 800d4d0:	69ba      	ldr	r2, [r7, #24]
 800d4d2:	4313      	orrs	r3, r2
 800d4d4:	61bb      	str	r3, [r7, #24]
 800d4d6:	69fb      	ldr	r3, [r7, #28]
 800d4d8:	08da      	lsrs	r2, r3, #3
 800d4da:	687b      	ldr	r3, [r7, #4]
 800d4dc:	3208      	adds	r2, #8
 800d4de:	69b9      	ldr	r1, [r7, #24]
 800d4e0:	f843 1022 	str.w	r1, [r3, r2, lsl #2]
 800d4e4:	687b      	ldr	r3, [r7, #4]
 800d4e6:	681b      	ldr	r3, [r3, #0]
 800d4e8:	61bb      	str	r3, [r7, #24]
 800d4ea:	69fb      	ldr	r3, [r7, #28]
 800d4ec:	005b      	lsls	r3, r3, #1
 800d4ee:	2203      	movs	r2, #3
 800d4f0:	fa02 f303 	lsl.w	r3, r2, r3
 800d4f4:	43db      	mvns	r3, r3
 800d4f6:	69ba      	ldr	r2, [r7, #24]
 800d4f8:	4013      	ands	r3, r2
 800d4fa:	61bb      	str	r3, [r7, #24]
 800d4fc:	683b      	ldr	r3, [r7, #0]
 800d4fe:	685b      	ldr	r3, [r3, #4]
 800d500:	f003 0203 	and.w	r2, r3, #3
 800d504:	69fb      	ldr	r3, [r7, #28]
 800d506:	005b      	lsls	r3, r3, #1
 800d508:	fa02 f303 	lsl.w	r3, r2, r3
 800d50c:	69ba      	ldr	r2, [r7, #24]
 800d50e:	4313      	orrs	r3, r2
 800d510:	61bb      	str	r3, [r7, #24]
 800d512:	687b      	ldr	r3, [r7, #4]
 800d514:	69ba      	ldr	r2, [r7, #24]
 800d516:	601a      	str	r2, [r3, #0]
 800d518:	683b      	ldr	r3, [r7, #0]
 800d51a:	685b      	ldr	r3, [r3, #4]
 800d51c:	f403 3340 	and.w	r3, r3, #196608	; 0x30000
 800d520:	2b00      	cmp	r3, #0
 800d522:	f000 80a2 	beq.w	800d66a <HAL_GPIO_Init+0x2ca>
 800d526:	2300      	movs	r3, #0
 800d528:	60fb      	str	r3, [r7, #12]
 800d52a:	4b57      	ldr	r3, [pc, #348]	; (800d688 <HAL_GPIO_Init+0x2e8>)
 800d52c:	6c5b      	ldr	r3, [r3, #68]	; 0x44
 800d52e:	4a56      	ldr	r2, [pc, #344]	; (800d688 <HAL_GPIO_Init+0x2e8>)
 800d530:	f443 4380 	orr.w	r3, r3, #16384	; 0x4000
 800d534:	6453      	str	r3, [r2, #68]	; 0x44
 800d536:	4b54      	ldr	r3, [pc, #336]	; (800d688 <HAL_GPIO_Init+0x2e8>)
 800d538:	6c5b      	ldr	r3, [r3, #68]	; 0x44
 800d53a:	f403 4380 	and.w	r3, r3, #16384	; 0x4000
 800d53e:	60fb      	str	r3, [r7, #12]
 800d540:	68fb      	ldr	r3, [r7, #12]
 800d542:	4a52      	ldr	r2, [pc, #328]	; (800d68c <HAL_GPIO_Init+0x2ec>)
 800d544:	69fb      	ldr	r3, [r7, #28]
 800d546:	089b      	lsrs	r3, r3, #2
 800d548:	3302      	adds	r3, #2
 800d54a:	f852 3023 	ldr.w	r3, [r2, r3, lsl #2]
 800d54e:	61bb      	str	r3, [r7, #24]
 800d550:	69fb      	ldr	r3, [r7, #28]
 800d552:	f003 0303 	and.w	r3, r3, #3
 800d556:	009b      	lsls	r3, r3, #2
 800d558:	220f      	movs	r2, #15
 800d55a:	fa02 f303 	lsl.w	r3, r2, r3
 800d55e:	43db      	mvns	r3, r3
 800d560:	69ba      	ldr	r2, [r7, #24]
 800d562:	4013      	ands	r3, r2
 800d564:	61bb      	str	r3, [r7, #24]
 800d566:	687b      	ldr	r3, [r7, #4]
 800d568:	4a49      	ldr	r2, [pc, #292]	; (800d690 <HAL_GPIO_Init+0x2f0>)
 800d56a:	4293      	cmp	r3, r2
 800d56c:	d019      	beq.n	800d5a2 <HAL_GPIO_Init+0x202>
 800d56e:	687b      	ldr	r3, [r7, #4]
 800d570:	4a48      	ldr	r2, [pc, #288]	; (800d694 <HAL_GPIO_Init+0x2f4>)
 800d572:	4293      	cmp	r3, r2
 800d574:	d013      	beq.n	800d59e <HAL_GPIO_Init+0x1fe>
 800d576:	687b      	ldr	r3, [r7, #4]
 800d578:	4a47      	ldr	r2, [pc, #284]	; (800d698 <HAL_GPIO_Init+0x2f8>)
 800d57a:	4293      	cmp	r3, r2
 800d57c:	d00d      	beq.n	800d59a <HAL_GPIO_Init+0x1fa>
 800d57e:	687b      	ldr	r3, [r7, #4]
 800d580:	4a46      	ldr	r2, [pc, #280]	; (800d69c <HAL_GPIO_Init+0x2fc>)
 800d582:	4293      	cmp	r3, r2
 800d584:	d007      	beq.n	800d596 <HAL_GPIO_Init+0x1f6>
 800d586:	687b      	ldr	r3, [r7, #4]
 800d588:	4a45      	ldr	r2, [pc, #276]	; (800d6a0 <HAL_GPIO_Init+0x300>)
 800d58a:	4293      	cmp	r3, r2
 800d58c:	d101      	bne.n	800d592 <HAL_GPIO_Init+0x1f2>
 800d58e:	2304      	movs	r3, #4
 800d590:	e008      	b.n	800d5a4 <HAL_GPIO_Init+0x204>
 800d592:	2307      	movs	r3, #7
 800d594:	e006      	b.n	800d5a4 <HAL_GPIO_Init+0x204>
 800d596:	2303      	movs	r3, #3
 800d598:	e004      	b.n	800d5a4 <HAL_GPIO_Init+0x204>
 800d59a:	2302      	movs	r3, #2
 800d59c:	e002      	b.n	800d5a4 <HAL_GPIO_Init+0x204>
 800d59e:	2301      	movs	r3, #1
 800d5a0:	e000      	b.n	800d5a4 <HAL_GPIO_Init+0x204>
 800d5a2:	2300      	movs	r3, #0
 800d5a4:	69fa      	ldr	r2, [r7, #28]
 800d5a6:	f002 0203 	and.w	r2, r2, #3
 800d5aa:	0092      	lsls	r2, r2, #2
 800d5ac:	4093      	lsls	r3, r2
 800d5ae:	69ba      	ldr	r2, [r7, #24]
 800d5b0:	4313      	orrs	r3, r2
 800d5b2:	61bb      	str	r3, [r7, #24]
 800d5b4:	4935      	ldr	r1, [pc, #212]	; (800d68c <HAL_GPIO_Init+0x2ec>)
 800d5b6:	69fb      	ldr	r3, [r7, #28]
 800d5b8:	089b      	lsrs	r3, r3, #2
 800d5ba:	3302      	adds	r3, #2
 800d5bc:	69ba      	ldr	r2, [r7, #24]
 800d5be:	f841 2023 	str.w	r2, [r1, r3, lsl #2]
 800d5c2:	4b38      	ldr	r3, [pc, #224]	; (800d6a4 <HAL_GPIO_Init+0x304>)
 800d5c4:	689b      	ldr	r3, [r3, #8]
 800d5c6:	61bb      	str	r3, [r7, #24]
 800d5c8:	693b      	ldr	r3, [r7, #16]
 800d5ca:	43db      	mvns	r3, r3
 800d5cc:	69ba      	ldr	r2, [r7, #24]
 800d5ce:	4013      	ands	r3, r2
 800d5d0:	61bb      	str	r3, [r7, #24]
 800d5d2:	683b      	ldr	r3, [r7, #0]
 800d5d4:	685b      	ldr	r3, [r3, #4]
 800d5d6:	f403 1380 	and.w	r3, r3, #1048576	; 0x100000
 800d5da:	2b00      	cmp	r3, #0
 800d5dc:	d003      	beq.n	800d5e6 <HAL_GPIO_Init+0x246>
 800d5de:	69ba      	ldr	r2, [r7, #24]
 800d5e0:	693b      	ldr	r3, [r7, #16]
 800d5e2:	4313      	orrs	r3, r2
 800d5e4:	61bb      	str	r3, [r7, #24]
 800d5e6:	4a2f      	ldr	r2, [pc, #188]	; (800d6a4 <HAL_GPIO_Init+0x304>)
 800d5e8:	69bb      	ldr	r3, [r7, #24]
 800d5ea:	6093      	str	r3, [r2, #8]
 800d5ec:	4b2d      	ldr	r3, [pc, #180]	; (800d6a4 <HAL_GPIO_Init+0x304>)
 800d5ee:	68db      	ldr	r3, [r3, #12]
 800d5f0:	61bb      	str	r3, [r7, #24]
 800d5f2:	693b      	ldr	r3, [r7, #16]
 800d5f4:	43db      	mvns	r3, r3
 800d5f6:	69ba      	ldr	r2, [r7, #24]
 800d5f8:	4013      	ands	r3, r2
 800d5fa:	61bb      	str	r3, [r7, #24]
 800d5fc:	683b      	ldr	r3, [r7, #0]
 800d5fe:	685b      	ldr	r3, [r3, #4]
 800d600:	f403 1300 	and.w	r3, r3, #2097152	; 0x200000
 800d604:	2b00      	cmp	r3, #0
 800d606:	d003      	beq.n	800d610 <HAL_GPIO_Init+0x270>
 800d608:	69ba      	ldr	r2, [r7, #24]
 800d60a:	693b      	ldr	r3, [r7, #16]
 800d60c:	4313      	orrs	r3, r2
 800d60e:	61bb      	str	r3, [r7, #24]
 800d610:	4a24      	ldr	r2, [pc, #144]	; (800d6a4 <HAL_GPIO_Init+0x304>)
 800d612:	69bb      	ldr	r3, [r7, #24]
 800d614:	60d3      	str	r3, [r2, #12]
 800d616:	4b23      	ldr	r3, [pc, #140]	; (800d6a4 <HAL_GPIO_Init+0x304>)
 800d618:	685b      	ldr	r3, [r3, #4]
 800d61a:	61bb      	str	r3, [r7, #24]
 800d61c:	693b      	ldr	r3, [r7, #16]
 800d61e:	43db      	mvns	r3, r3
 800d620:	69ba      	ldr	r2, [r7, #24]
 800d622:	4013      	ands	r3, r2
 800d624:	61bb      	str	r3, [r7, #24]
 800d626:	683b      	ldr	r3, [r7, #0]
 800d628:	685b      	ldr	r3, [r3, #4]
 800d62a:	f403 3300 	and.w	r3, r3, #131072	; 0x20000
 800d62e:	2b00      	cmp	r3, #0
 800d630:	d003      	beq.n	800d63a <HAL_GPIO_Init+0x29a>
 800d632:	69ba      	ldr	r2, [r7, #24]
 800d634:	693b      	ldr	r3, [r7, #16]
 800d636:	4313      	orrs	r3, r2
 800d638:	61bb      	str	r3, [r7, #24]
 800d63a:	4a1a      	ldr	r2, [pc, #104]	; (800d6a4 <HAL_GPIO_Init+0x304>)
 800d63c:	69bb      	ldr	r3, [r7, #24]
 800d63e:	6053      	str	r3, [r2, #4]
 800d640:	4b18      	ldr	r3, [pc, #96]	; (800d6a4 <HAL_GPIO_Init+0x304>)
 800d642:	681b      	ldr	r3, [r3, #0]
 800d644:	61bb      	str	r3, [r7, #24]
 800d646:	693b      	ldr	r3, [r7, #16]
 800d648:	43db      	mvns	r3, r3
 800d64a:	69ba      	ldr	r2, [r7, #24]
 800d64c:	4013      	ands	r3, r2
 800d64e:	61bb      	str	r3, [r7, #24]
 800d650:	683b      	ldr	r3, [r7, #0]
 800d652:	685b      	ldr	r3, [r3, #4]
 800d654:	f403 3380 	and.w	r3, r3, #65536	; 0x10000
 800d658:	2b00      	cmp	r3, #0
 800d65a:	d003      	beq.n	800d664 <HAL_GPIO_Init+0x2c4>
 800d65c:	69ba      	ldr	r2, [r7, #24]
 800d65e:	693b      	ldr	r3, [r7, #16]
 800d660:	4313      	orrs	r3, r2
 800d662:	61bb      	str	r3, [r7, #24]
 800d664:	4a0f      	ldr	r2, [pc, #60]	; (800d6a4 <HAL_GPIO_Init+0x304>)
 800d666:	69bb      	ldr	r3, [r7, #24]
 800d668:	6013      	str	r3, [r2, #0]
 800d66a:	69fb      	ldr	r3, [r7, #28]
 800d66c:	3301      	adds	r3, #1
 800d66e:	61fb      	str	r3, [r7, #28]
 800d670:	69fb      	ldr	r3, [r7, #28]
 800d672:	2b0f      	cmp	r3, #15
 800d674:	f67f aea2 	bls.w	800d3bc <HAL_GPIO_Init+0x1c>
 800d678:	bf00      	nop
 800d67a:	bf00      	nop
 800d67c:	3724      	adds	r7, #36	; 0x24
 800d67e:	46bd      	mov	sp, r7
 800d680:	f85d 7b04 	ldr.w	r7, [sp], #4
 800d684:	4770      	bx	lr
 800d686:	bf00      	nop
 800d688:	40023800 	.word	0x40023800
 800d68c:	40013800 	.word	0x40013800
 800d690:	40020000 	.word	0x40020000
 800d694:	40020400 	.word	0x40020400
 800d698:	40020800 	.word	0x40020800
 800d69c:	40020c00 	.word	0x40020c00
 800d6a0:	40021000 	.word	0x40021000
 800d6a4:	40013c00 	.word	0x40013c00

0800d6a8 <HAL_GPIO_WritePin>:
 800d6a8:	b480      	push	{r7}
 800d6aa:	b083      	sub	sp, #12
 800d6ac:	af00      	add	r7, sp, #0
 800d6ae:	6078      	str	r0, [r7, #4]
 800d6b0:	460b      	mov	r3, r1
 800d6b2:	807b      	strh	r3, [r7, #2]
 800d6b4:	4613      	mov	r3, r2
 800d6b6:	707b      	strb	r3, [r7, #1]
 800d6b8:	787b      	ldrb	r3, [r7, #1]
 800d6ba:	2b00      	cmp	r3, #0
 800d6bc:	d003      	beq.n	800d6c6 <HAL_GPIO_WritePin+0x1e>
 800d6be:	887a      	ldrh	r2, [r7, #2]
 800d6c0:	687b      	ldr	r3, [r7, #4]
 800d6c2:	619a      	str	r2, [r3, #24]
 800d6c4:	e003      	b.n	800d6ce <HAL_GPIO_WritePin+0x26>
 800d6c6:	887b      	ldrh	r3, [r7, #2]
 800d6c8:	041a      	lsls	r2, r3, #16
 800d6ca:	687b      	ldr	r3, [r7, #4]
 800d6cc:	619a      	str	r2, [r3, #24]
 800d6ce:	bf00      	nop
 800d6d0:	370c      	adds	r7, #12
 800d6d2:	46bd      	mov	sp, r7
 800d6d4:	f85d 7b04 	ldr.w	r7, [sp], #4
 800d6d8:	4770      	bx	lr
	...

0800d6dc <HAL_RCC_OscConfig>:
 800d6dc:	b580      	push	{r7, lr}
 800d6de:	b086      	sub	sp, #24
 800d6e0:	af00      	add	r7, sp, #0
 800d6e2:	6078      	str	r0, [r7, #4]
 800d6e4:	687b      	ldr	r3, [r7, #4]
 800d6e6:	2b00      	cmp	r3, #0
 800d6e8:	d101      	bne.n	800d6ee <HAL_RCC_OscConfig+0x12>
 800d6ea:	2301      	movs	r3, #1
 800d6ec:	e267      	b.n	800dbbe <HAL_RCC_OscConfig+0x4e2>
 800d6ee:	687b      	ldr	r3, [r7, #4]
 800d6f0:	681b      	ldr	r3, [r3, #0]
 800d6f2:	f003 0301 	and.w	r3, r3, #1
 800d6f6:	2b00      	cmp	r3, #0
 800d6f8:	d075      	beq.n	800d7e6 <HAL_RCC_OscConfig+0x10a>
 800d6fa:	4b88      	ldr	r3, [pc, #544]	; (800d91c <HAL_RCC_OscConfig+0x240>)
 800d6fc:	689b      	ldr	r3, [r3, #8]
 800d6fe:	f003 030c 	and.w	r3, r3, #12
 800d702:	2b04      	cmp	r3, #4
 800d704:	d00c      	beq.n	800d720 <HAL_RCC_OscConfig+0x44>
 800d706:	4b85      	ldr	r3, [pc, #532]	; (800d91c <HAL_RCC_OscConfig+0x240>)
 800d708:	689b      	ldr	r3, [r3, #8]
 800d70a:	f003 030c 	and.w	r3, r3, #12
 800d70e:	2b08      	cmp	r3, #8
 800d710:	d112      	bne.n	800d738 <HAL_RCC_OscConfig+0x5c>
 800d712:	4b82      	ldr	r3, [pc, #520]	; (800d91c <HAL_RCC_OscConfig+0x240>)
 800d714:	685b      	ldr	r3, [r3, #4]
 800d716:	f403 0380 	and.w	r3, r3, #4194304	; 0x400000
 800d71a:	f5b3 0f80 	cmp.w	r3, #4194304	; 0x400000
 800d71e:	d10b      	bne.n	800d738 <HAL_RCC_OscConfig+0x5c>
 800d720:	4b7e      	ldr	r3, [pc, #504]	; (800d91c <HAL_RCC_OscConfig+0x240>)
 800d722:	681b      	ldr	r3, [r3, #0]
 800d724:	f403 3300 	and.w	r3, r3, #131072	; 0x20000
 800d728:	2b00      	cmp	r3, #0
 800d72a:	d05b      	beq.n	800d7e4 <HAL_RCC_OscConfig+0x108>
 800d72c:	687b      	ldr	r3, [r7, #4]
 800d72e:	685b      	ldr	r3, [r3, #4]
 800d730:	2b00      	cmp	r3, #0
 800d732:	d157      	bne.n	800d7e4 <HAL_RCC_OscConfig+0x108>
 800d734:	2301      	movs	r3, #1
 800d736:	e242      	b.n	800dbbe <HAL_RCC_OscConfig+0x4e2>
 800d738:	687b      	ldr	r3, [r7, #4]
 800d73a:	685b      	ldr	r3, [r3, #4]
 800d73c:	f5b3 3f80 	cmp.w	r3, #65536	; 0x10000
 800d740:	d106      	bne.n	800d750 <HAL_RCC_OscConfig+0x74>
 800d742:	4b76      	ldr	r3, [pc, #472]	; (800d91c <HAL_RCC_OscConfig+0x240>)
 800d744:	681b      	ldr	r3, [r3, #0]
 800d746:	4a75      	ldr	r2, [pc, #468]	; (800d91c <HAL_RCC_OscConfig+0x240>)
 800d748:	f443 3380 	orr.w	r3, r3, #65536	; 0x10000
 800d74c:	6013      	str	r3, [r2, #0]
 800d74e:	e01d      	b.n	800d78c <HAL_RCC_OscConfig+0xb0>
 800d750:	687b      	ldr	r3, [r7, #4]
 800d752:	685b      	ldr	r3, [r3, #4]
 800d754:	f5b3 2fa0 	cmp.w	r3, #327680	; 0x50000
 800d758:	d10c      	bne.n	800d774 <HAL_RCC_OscConfig+0x98>
 800d75a:	4b70      	ldr	r3, [pc, #448]	; (800d91c <HAL_RCC_OscConfig+0x240>)
 800d75c:	681b      	ldr	r3, [r3, #0]
 800d75e:	4a6f      	ldr	r2, [pc, #444]	; (800d91c <HAL_RCC_OscConfig+0x240>)
 800d760:	f443 2380 	orr.w	r3, r3, #262144	; 0x40000
 800d764:	6013      	str	r3, [r2, #0]
 800d766:	4b6d      	ldr	r3, [pc, #436]	; (800d91c <HAL_RCC_OscConfig+0x240>)
 800d768:	681b      	ldr	r3, [r3, #0]
 800d76a:	4a6c      	ldr	r2, [pc, #432]	; (800d91c <HAL_RCC_OscConfig+0x240>)
 800d76c:	f443 3380 	orr.w	r3, r3, #65536	; 0x10000
 800d770:	6013      	str	r3, [r2, #0]
 800d772:	e00b      	b.n	800d78c <HAL_RCC_OscConfig+0xb0>
 800d774:	4b69      	ldr	r3, [pc, #420]	; (800d91c <HAL_RCC_OscConfig+0x240>)
 800d776:	681b      	ldr	r3, [r3, #0]
 800d778:	4a68      	ldr	r2, [pc, #416]	; (800d91c <HAL_RCC_OscConfig+0x240>)
 800d77a:	f423 3380 	bic.w	r3, r3, #65536	; 0x10000
 800d77e:	6013      	str	r3, [r2, #0]
 800d780:	4b66      	ldr	r3, [pc, #408]	; (800d91c <HAL_RCC_OscConfig+0x240>)
 800d782:	681b      	ldr	r3, [r3, #0]
 800d784:	4a65      	ldr	r2, [pc, #404]	; (800d91c <HAL_RCC_OscConfig+0x240>)
 800d786:	f423 2380 	bic.w	r3, r3, #262144	; 0x40000
 800d78a:	6013      	str	r3, [r2, #0]
 800d78c:	687b      	ldr	r3, [r7, #4]
 800d78e:	685b      	ldr	r3, [r3, #4]
 800d790:	2b00      	cmp	r3, #0
 800d792:	d013      	beq.n	800d7bc <HAL_RCC_OscConfig+0xe0>
 800d794:	f7ff fcee 	bl	800d174 <HAL_GetTick>
 800d798:	6138      	str	r0, [r7, #16]
 800d79a:	e008      	b.n	800d7ae <HAL_RCC_OscConfig+0xd2>
 800d79c:	f7ff fcea 	bl	800d174 <HAL_GetTick>
 800d7a0:	4602      	mov	r2, r0
 800d7a2:	693b      	ldr	r3, [r7, #16]
 800d7a4:	1ad3      	subs	r3, r2, r3
 800d7a6:	2b64      	cmp	r3, #100	; 0x64
 800d7a8:	d901      	bls.n	800d7ae <HAL_RCC_OscConfig+0xd2>
 800d7aa:	2303      	movs	r3, #3
 800d7ac:	e207      	b.n	800dbbe <HAL_RCC_OscConfig+0x4e2>
 800d7ae:	4b5b      	ldr	r3, [pc, #364]	; (800d91c <HAL_RCC_OscConfig+0x240>)
 800d7b0:	681b      	ldr	r3, [r3, #0]
 800d7b2:	f403 3300 	and.w	r3, r3, #131072	; 0x20000
 800d7b6:	2b00      	cmp	r3, #0
 800d7b8:	d0f0      	beq.n	800d79c <HAL_RCC_OscConfig+0xc0>
 800d7ba:	e014      	b.n	800d7e6 <HAL_RCC_OscConfig+0x10a>
 800d7bc:	f7ff fcda 	bl	800d174 <HAL_GetTick>
 800d7c0:	6138      	str	r0, [r7, #16]
 800d7c2:	e008      	b.n	800d7d6 <HAL_RCC_OscConfig+0xfa>
 800d7c4:	f7ff fcd6 	bl	800d174 <HAL_GetTick>
 800d7c8:	4602      	mov	r2, r0
 800d7ca:	693b      	ldr	r3, [r7, #16]
 800d7cc:	1ad3      	subs	r3, r2, r3
 800d7ce:	2b64      	cmp	r3, #100	; 0x64
 800d7d0:	d901      	bls.n	800d7d6 <HAL_RCC_OscConfig+0xfa>
 800d7d2:	2303      	movs	r3, #3
 800d7d4:	e1f3      	b.n	800dbbe <HAL_RCC_OscConfig+0x4e2>
 800d7d6:	4b51      	ldr	r3, [pc, #324]	; (800d91c <HAL_RCC_OscConfig+0x240>)
 800d7d8:	681b      	ldr	r3, [r3, #0]
 800d7da:	f403 3300 	and.w	r3, r3, #131072	; 0x20000
 800d7de:	2b00      	cmp	r3, #0
 800d7e0:	d1f0      	bne.n	800d7c4 <HAL_RCC_OscConfig+0xe8>
 800d7e2:	e000      	b.n	800d7e6 <HAL_RCC_OscConfig+0x10a>
 800d7e4:	bf00      	nop
 800d7e6:	687b      	ldr	r3, [r7, #4]
 800d7e8:	681b      	ldr	r3, [r3, #0]
 800d7ea:	f003 0302 	and.w	r3, r3, #2
 800d7ee:	2b00      	cmp	r3, #0
 800d7f0:	d063      	beq.n	800d8ba <HAL_RCC_OscConfig+0x1de>
 800d7f2:	4b4a      	ldr	r3, [pc, #296]	; (800d91c <HAL_RCC_OscConfig+0x240>)
 800d7f4:	689b      	ldr	r3, [r3, #8]
 800d7f6:	f003 030c 	and.w	r3, r3, #12
 800d7fa:	2b00      	cmp	r3, #0
 800d7fc:	d00b      	beq.n	800d816 <HAL_RCC_OscConfig+0x13a>
 800d7fe:	4b47      	ldr	r3, [pc, #284]	; (800d91c <HAL_RCC_OscConfig+0x240>)
 800d800:	689b      	ldr	r3, [r3, #8]
 800d802:	f003 030c 	and.w	r3, r3, #12
 800d806:	2b08      	cmp	r3, #8
 800d808:	d11c      	bne.n	800d844 <HAL_RCC_OscConfig+0x168>
 800d80a:	4b44      	ldr	r3, [pc, #272]	; (800d91c <HAL_RCC_OscConfig+0x240>)
 800d80c:	685b      	ldr	r3, [r3, #4]
 800d80e:	f403 0380 	and.w	r3, r3, #4194304	; 0x400000
 800d812:	2b00      	cmp	r3, #0
 800d814:	d116      	bne.n	800d844 <HAL_RCC_OscConfig+0x168>
 800d816:	4b41      	ldr	r3, [pc, #260]	; (800d91c <HAL_RCC_OscConfig+0x240>)
 800d818:	681b      	ldr	r3, [r3, #0]
 800d81a:	f003 0302 	and.w	r3, r3, #2
 800d81e:	2b00      	cmp	r3, #0
 800d820:	d005      	beq.n	800d82e <HAL_RCC_OscConfig+0x152>
 800d822:	687b      	ldr	r3, [r7, #4]
 800d824:	68db      	ldr	r3, [r3, #12]
 800d826:	2b01      	cmp	r3, #1
 800d828:	d001      	beq.n	800d82e <HAL_RCC_OscConfig+0x152>
 800d82a:	2301      	movs	r3, #1
 800d82c:	e1c7      	b.n	800dbbe <HAL_RCC_OscConfig+0x4e2>
 800d82e:	4b3b      	ldr	r3, [pc, #236]	; (800d91c <HAL_RCC_OscConfig+0x240>)
 800d830:	681b      	ldr	r3, [r3, #0]
 800d832:	f023 02f8 	bic.w	r2, r3, #248	; 0xf8
 800d836:	687b      	ldr	r3, [r7, #4]
 800d838:	691b      	ldr	r3, [r3, #16]
 800d83a:	00db      	lsls	r3, r3, #3
 800d83c:	4937      	ldr	r1, [pc, #220]	; (800d91c <HAL_RCC_OscConfig+0x240>)
 800d83e:	4313      	orrs	r3, r2
 800d840:	600b      	str	r3, [r1, #0]
 800d842:	e03a      	b.n	800d8ba <HAL_RCC_OscConfig+0x1de>
 800d844:	687b      	ldr	r3, [r7, #4]
 800d846:	68db      	ldr	r3, [r3, #12]
 800d848:	2b00      	cmp	r3, #0
 800d84a:	d020      	beq.n	800d88e <HAL_RCC_OscConfig+0x1b2>
 800d84c:	4b34      	ldr	r3, [pc, #208]	; (800d920 <HAL_RCC_OscConfig+0x244>)
 800d84e:	2201      	movs	r2, #1
 800d850:	601a      	str	r2, [r3, #0]
 800d852:	f7ff fc8f 	bl	800d174 <HAL_GetTick>
 800d856:	6138      	str	r0, [r7, #16]
 800d858:	e008      	b.n	800d86c <HAL_RCC_OscConfig+0x190>
 800d85a:	f7ff fc8b 	bl	800d174 <HAL_GetTick>
 800d85e:	4602      	mov	r2, r0
 800d860:	693b      	ldr	r3, [r7, #16]
 800d862:	1ad3      	subs	r3, r2, r3
 800d864:	2b02      	cmp	r3, #2
 800d866:	d901      	bls.n	800d86c <HAL_RCC_OscConfig+0x190>
 800d868:	2303      	movs	r3, #3
 800d86a:	e1a8      	b.n	800dbbe <HAL_RCC_OscConfig+0x4e2>
 800d86c:	4b2b      	ldr	r3, [pc, #172]	; (800d91c <HAL_RCC_OscConfig+0x240>)
 800d86e:	681b      	ldr	r3, [r3, #0]
 800d870:	f003 0302 	and.w	r3, r3, #2
 800d874:	2b00      	cmp	r3, #0
 800d876:	d0f0      	beq.n	800d85a <HAL_RCC_OscConfig+0x17e>
 800d878:	4b28      	ldr	r3, [pc, #160]	; (800d91c <HAL_RCC_OscConfig+0x240>)
 800d87a:	681b      	ldr	r3, [r3, #0]
 800d87c:	f023 02f8 	bic.w	r2, r3, #248	; 0xf8
 800d880:	687b      	ldr	r3, [r7, #4]
 800d882:	691b      	ldr	r3, [r3, #16]
 800d884:	00db      	lsls	r3, r3, #3
 800d886:	4925      	ldr	r1, [pc, #148]	; (800d91c <HAL_RCC_OscConfig+0x240>)
 800d888:	4313      	orrs	r3, r2
 800d88a:	600b      	str	r3, [r1, #0]
 800d88c:	e015      	b.n	800d8ba <HAL_RCC_OscConfig+0x1de>
 800d88e:	4b24      	ldr	r3, [pc, #144]	; (800d920 <HAL_RCC_OscConfig+0x244>)
 800d890:	2200      	movs	r2, #0
 800d892:	601a      	str	r2, [r3, #0]
 800d894:	f7ff fc6e 	bl	800d174 <HAL_GetTick>
 800d898:	6138      	str	r0, [r7, #16]
 800d89a:	e008      	b.n	800d8ae <HAL_RCC_OscConfig+0x1d2>
 800d89c:	f7ff fc6a 	bl	800d174 <HAL_GetTick>
 800d8a0:	4602      	mov	r2, r0
 800d8a2:	693b      	ldr	r3, [r7, #16]
 800d8a4:	1ad3      	subs	r3, r2, r3
 800d8a6:	2b02      	cmp	r3, #2
 800d8a8:	d901      	bls.n	800d8ae <HAL_RCC_OscConfig+0x1d2>
 800d8aa:	2303      	movs	r3, #3
 800d8ac:	e187      	b.n	800dbbe <HAL_RCC_OscConfig+0x4e2>
 800d8ae:	4b1b      	ldr	r3, [pc, #108]	; (800d91c <HAL_RCC_OscConfig+0x240>)
 800d8b0:	681b      	ldr	r3, [r3, #0]
 800d8b2:	f003 0302 	and.w	r3, r3, #2
 800d8b6:	2b00      	cmp	r3, #0
 800d8b8:	d1f0      	bne.n	800d89c <HAL_RCC_OscConfig+0x1c0>
 800d8ba:	687b      	ldr	r3, [r7, #4]
 800d8bc:	681b      	ldr	r3, [r3, #0]
 800d8be:	f003 0308 	and.w	r3, r3, #8
 800d8c2:	2b00      	cmp	r3, #0
 800d8c4:	d036      	beq.n	800d934 <HAL_RCC_OscConfig+0x258>
 800d8c6:	687b      	ldr	r3, [r7, #4]
 800d8c8:	695b      	ldr	r3, [r3, #20]
 800d8ca:	2b00      	cmp	r3, #0
 800d8cc:	d016      	beq.n	800d8fc <HAL_RCC_OscConfig+0x220>
 800d8ce:	4b15      	ldr	r3, [pc, #84]	; (800d924 <HAL_RCC_OscConfig+0x248>)
 800d8d0:	2201      	movs	r2, #1
 800d8d2:	601a      	str	r2, [r3, #0]
 800d8d4:	f7ff fc4e 	bl	800d174 <HAL_GetTick>
 800d8d8:	6138      	str	r0, [r7, #16]
 800d8da:	e008      	b.n	800d8ee <HAL_RCC_OscConfig+0x212>
 800d8dc:	f7ff fc4a 	bl	800d174 <HAL_GetTick>
 800d8e0:	4602      	mov	r2, r0
 800d8e2:	693b      	ldr	r3, [r7, #16]
 800d8e4:	1ad3      	subs	r3, r2, r3
 800d8e6:	2b02      	cmp	r3, #2
 800d8e8:	d901      	bls.n	800d8ee <HAL_RCC_OscConfig+0x212>
 800d8ea:	2303      	movs	r3, #3
 800d8ec:	e167      	b.n	800dbbe <HAL_RCC_OscConfig+0x4e2>
 800d8ee:	4b0b      	ldr	r3, [pc, #44]	; (800d91c <HAL_RCC_OscConfig+0x240>)
 800d8f0:	6f5b      	ldr	r3, [r3, #116]	; 0x74
 800d8f2:	f003 0302 	and.w	r3, r3, #2
 800d8f6:	2b00      	cmp	r3, #0
 800d8f8:	d0f0      	beq.n	800d8dc <HAL_RCC_OscConfig+0x200>
 800d8fa:	e01b      	b.n	800d934 <HAL_RCC_OscConfig+0x258>
 800d8fc:	4b09      	ldr	r3, [pc, #36]	; (800d924 <HAL_RCC_OscConfig+0x248>)
 800d8fe:	2200      	movs	r2, #0
 800d900:	601a      	str	r2, [r3, #0]
 800d902:	f7ff fc37 	bl	800d174 <HAL_GetTick>
 800d906:	6138      	str	r0, [r7, #16]
 800d908:	e00e      	b.n	800d928 <HAL_RCC_OscConfig+0x24c>
 800d90a:	f7ff fc33 	bl	800d174 <HAL_GetTick>
 800d90e:	4602      	mov	r2, r0
 800d910:	693b      	ldr	r3, [r7, #16]
 800d912:	1ad3      	subs	r3, r2, r3
 800d914:	2b02      	cmp	r3, #2
 800d916:	d907      	bls.n	800d928 <HAL_RCC_OscConfig+0x24c>
 800d918:	2303      	movs	r3, #3
 800d91a:	e150      	b.n	800dbbe <HAL_RCC_OscConfig+0x4e2>
 800d91c:	40023800 	.word	0x40023800
 800d920:	42470000 	.word	0x42470000
 800d924:	42470e80 	.word	0x42470e80
 800d928:	4b88      	ldr	r3, [pc, #544]	; (800db4c <HAL_RCC_OscConfig+0x470>)
 800d92a:	6f5b      	ldr	r3, [r3, #116]	; 0x74
 800d92c:	f003 0302 	and.w	r3, r3, #2
 800d930:	2b00      	cmp	r3, #0
 800d932:	d1ea      	bne.n	800d90a <HAL_RCC_OscConfig+0x22e>
 800d934:	687b      	ldr	r3, [r7, #4]
 800d936:	681b      	ldr	r3, [r3, #0]
 800d938:	f003 0304 	and.w	r3, r3, #4
 800d93c:	2b00      	cmp	r3, #0
 800d93e:	f000 8097 	beq.w	800da70 <HAL_RCC_OscConfig+0x394>
 800d942:	2300      	movs	r3, #0
 800d944:	75fb      	strb	r3, [r7, #23]
 800d946:	4b81      	ldr	r3, [pc, #516]	; (800db4c <HAL_RCC_OscConfig+0x470>)
 800d948:	6c1b      	ldr	r3, [r3, #64]	; 0x40
 800d94a:	f003 5380 	and.w	r3, r3, #268435456	; 0x10000000
 800d94e:	2b00      	cmp	r3, #0
 800d950:	d10f      	bne.n	800d972 <HAL_RCC_OscConfig+0x296>
 800d952:	2300      	movs	r3, #0
 800d954:	60bb      	str	r3, [r7, #8]
 800d956:	4b7d      	ldr	r3, [pc, #500]	; (800db4c <HAL_RCC_OscConfig+0x470>)
 800d958:	6c1b      	ldr	r3, [r3, #64]	; 0x40
 800d95a:	4a7c      	ldr	r2, [pc, #496]	; (800db4c <HAL_RCC_OscConfig+0x470>)
 800d95c:	f043 5380 	orr.w	r3, r3, #268435456	; 0x10000000
 800d960:	6413      	str	r3, [r2, #64]	; 0x40
 800d962:	4b7a      	ldr	r3, [pc, #488]	; (800db4c <HAL_RCC_OscConfig+0x470>)
 800d964:	6c1b      	ldr	r3, [r3, #64]	; 0x40
 800d966:	f003 5380 	and.w	r3, r3, #268435456	; 0x10000000
 800d96a:	60bb      	str	r3, [r7, #8]
 800d96c:	68bb      	ldr	r3, [r7, #8]
 800d96e:	2301      	movs	r3, #1
 800d970:	75fb      	strb	r3, [r7, #23]
 800d972:	4b77      	ldr	r3, [pc, #476]	; (800db50 <HAL_RCC_OscConfig+0x474>)
 800d974:	681b      	ldr	r3, [r3, #0]
 800d976:	f403 7380 	and.w	r3, r3, #256	; 0x100
 800d97a:	2b00      	cmp	r3, #0
 800d97c:	d118      	bne.n	800d9b0 <HAL_RCC_OscConfig+0x2d4>
 800d97e:	4b74      	ldr	r3, [pc, #464]	; (800db50 <HAL_RCC_OscConfig+0x474>)
 800d980:	681b      	ldr	r3, [r3, #0]
 800d982:	4a73      	ldr	r2, [pc, #460]	; (800db50 <HAL_RCC_OscConfig+0x474>)
 800d984:	f443 7380 	orr.w	r3, r3, #256	; 0x100
 800d988:	6013      	str	r3, [r2, #0]
 800d98a:	f7ff fbf3 	bl	800d174 <HAL_GetTick>
 800d98e:	6138      	str	r0, [r7, #16]
 800d990:	e008      	b.n	800d9a4 <HAL_RCC_OscConfig+0x2c8>
 800d992:	f7ff fbef 	bl	800d174 <HAL_GetTick>
 800d996:	4602      	mov	r2, r0
 800d998:	693b      	ldr	r3, [r7, #16]
 800d99a:	1ad3      	subs	r3, r2, r3
 800d99c:	2b02      	cmp	r3, #2
 800d99e:	d901      	bls.n	800d9a4 <HAL_RCC_OscConfig+0x2c8>
 800d9a0:	2303      	movs	r3, #3
 800d9a2:	e10c      	b.n	800dbbe <HAL_RCC_OscConfig+0x4e2>
 800d9a4:	4b6a      	ldr	r3, [pc, #424]	; (800db50 <HAL_RCC_OscConfig+0x474>)
 800d9a6:	681b      	ldr	r3, [r3, #0]
 800d9a8:	f403 7380 	and.w	r3, r3, #256	; 0x100
 800d9ac:	2b00      	cmp	r3, #0
 800d9ae:	d0f0      	beq.n	800d992 <HAL_RCC_OscConfig+0x2b6>
 800d9b0:	687b      	ldr	r3, [r7, #4]
 800d9b2:	689b      	ldr	r3, [r3, #8]
 800d9b4:	2b01      	cmp	r3, #1
 800d9b6:	d106      	bne.n	800d9c6 <HAL_RCC_OscConfig+0x2ea>
 800d9b8:	4b64      	ldr	r3, [pc, #400]	; (800db4c <HAL_RCC_OscConfig+0x470>)
 800d9ba:	6f1b      	ldr	r3, [r3, #112]	; 0x70
 800d9bc:	4a63      	ldr	r2, [pc, #396]	; (800db4c <HAL_RCC_OscConfig+0x470>)
 800d9be:	f043 0301 	orr.w	r3, r3, #1
 800d9c2:	6713      	str	r3, [r2, #112]	; 0x70
 800d9c4:	e01c      	b.n	800da00 <HAL_RCC_OscConfig+0x324>
 800d9c6:	687b      	ldr	r3, [r7, #4]
 800d9c8:	689b      	ldr	r3, [r3, #8]
 800d9ca:	2b05      	cmp	r3, #5
 800d9cc:	d10c      	bne.n	800d9e8 <HAL_RCC_OscConfig+0x30c>
 800d9ce:	4b5f      	ldr	r3, [pc, #380]	; (800db4c <HAL_RCC_OscConfig+0x470>)
 800d9d0:	6f1b      	ldr	r3, [r3, #112]	; 0x70
 800d9d2:	4a5e      	ldr	r2, [pc, #376]	; (800db4c <HAL_RCC_OscConfig+0x470>)
 800d9d4:	f043 0304 	orr.w	r3, r3, #4
 800d9d8:	6713      	str	r3, [r2, #112]	; 0x70
 800d9da:	4b5c      	ldr	r3, [pc, #368]	; (800db4c <HAL_RCC_OscConfig+0x470>)
 800d9dc:	6f1b      	ldr	r3, [r3, #112]	; 0x70
 800d9de:	4a5b      	ldr	r2, [pc, #364]	; (800db4c <HAL_RCC_OscConfig+0x470>)
 800d9e0:	f043 0301 	orr.w	r3, r3, #1
 800d9e4:	6713      	str	r3, [r2, #112]	; 0x70
 800d9e6:	e00b      	b.n	800da00 <HAL_RCC_OscConfig+0x324>
 800d9e8:	4b58      	ldr	r3, [pc, #352]	; (800db4c <HAL_RCC_OscConfig+0x470>)
 800d9ea:	6f1b      	ldr	r3, [r3, #112]	; 0x70
 800d9ec:	4a57      	ldr	r2, [pc, #348]	; (800db4c <HAL_RCC_OscConfig+0x470>)
 800d9ee:	f023 0301 	bic.w	r3, r3, #1
 800d9f2:	6713      	str	r3, [r2, #112]	; 0x70
 800d9f4:	4b55      	ldr	r3, [pc, #340]	; (800db4c <HAL_RCC_OscConfig+0x470>)
 800d9f6:	6f1b      	ldr	r3, [r3, #112]	; 0x70
 800d9f8:	4a54      	ldr	r2, [pc, #336]	; (800db4c <HAL_RCC_OscConfig+0x470>)
 800d9fa:	f023 0304 	bic.w	r3, r3, #4
 800d9fe:	6713      	str	r3, [r2, #112]	; 0x70
 800da00:	687b      	ldr	r3, [r7, #4]
 800da02:	689b      	ldr	r3, [r3, #8]
 800da04:	2b00      	cmp	r3, #0
 800da06:	d015      	beq.n	800da34 <HAL_RCC_OscConfig+0x358>
 800da08:	f7ff fbb4 	bl	800d174 <HAL_GetTick>
 800da0c:	6138      	str	r0, [r7, #16]
 800da0e:	e00a      	b.n	800da26 <HAL_RCC_OscConfig+0x34a>
 800da10:	f7ff fbb0 	bl	800d174 <HAL_GetTick>
 800da14:	4602      	mov	r2, r0
 800da16:	693b      	ldr	r3, [r7, #16]
 800da18:	1ad3      	subs	r3, r2, r3
 800da1a:	f241 3288 	movw	r2, #5000	; 0x1388
 800da1e:	4293      	cmp	r3, r2
 800da20:	d901      	bls.n	800da26 <HAL_RCC_OscConfig+0x34a>
 800da22:	2303      	movs	r3, #3
 800da24:	e0cb      	b.n	800dbbe <HAL_RCC_OscConfig+0x4e2>
 800da26:	4b49      	ldr	r3, [pc, #292]	; (800db4c <HAL_RCC_OscConfig+0x470>)
 800da28:	6f1b      	ldr	r3, [r3, #112]	; 0x70
 800da2a:	f003 0302 	and.w	r3, r3, #2
 800da2e:	2b00      	cmp	r3, #0
 800da30:	d0ee      	beq.n	800da10 <HAL_RCC_OscConfig+0x334>
 800da32:	e014      	b.n	800da5e <HAL_RCC_OscConfig+0x382>
 800da34:	f7ff fb9e 	bl	800d174 <HAL_GetTick>
 800da38:	6138      	str	r0, [r7, #16]
 800da3a:	e00a      	b.n	800da52 <HAL_RCC_OscConfig+0x376>
 800da3c:	f7ff fb9a 	bl	800d174 <HAL_GetTick>
 800da40:	4602      	mov	r2, r0
 800da42:	693b      	ldr	r3, [r7, #16]
 800da44:	1ad3      	subs	r3, r2, r3
 800da46:	f241 3288 	movw	r2, #5000	; 0x1388
 800da4a:	4293      	cmp	r3, r2
 800da4c:	d901      	bls.n	800da52 <HAL_RCC_OscConfig+0x376>
 800da4e:	2303      	movs	r3, #3
 800da50:	e0b5      	b.n	800dbbe <HAL_RCC_OscConfig+0x4e2>
 800da52:	4b3e      	ldr	r3, [pc, #248]	; (800db4c <HAL_RCC_OscConfig+0x470>)
 800da54:	6f1b      	ldr	r3, [r3, #112]	; 0x70
 800da56:	f003 0302 	and.w	r3, r3, #2
 800da5a:	2b00      	cmp	r3, #0
 800da5c:	d1ee      	bne.n	800da3c <HAL_RCC_OscConfig+0x360>
 800da5e:	7dfb      	ldrb	r3, [r7, #23]
 800da60:	2b01      	cmp	r3, #1
 800da62:	d105      	bne.n	800da70 <HAL_RCC_OscConfig+0x394>
 800da64:	4b39      	ldr	r3, [pc, #228]	; (800db4c <HAL_RCC_OscConfig+0x470>)
 800da66:	6c1b      	ldr	r3, [r3, #64]	; 0x40
 800da68:	4a38      	ldr	r2, [pc, #224]	; (800db4c <HAL_RCC_OscConfig+0x470>)
 800da6a:	f023 5380 	bic.w	r3, r3, #268435456	; 0x10000000
 800da6e:	6413      	str	r3, [r2, #64]	; 0x40
 800da70:	687b      	ldr	r3, [r7, #4]
 800da72:	699b      	ldr	r3, [r3, #24]
 800da74:	2b00      	cmp	r3, #0
 800da76:	f000 80a1 	beq.w	800dbbc <HAL_RCC_OscConfig+0x4e0>
 800da7a:	4b34      	ldr	r3, [pc, #208]	; (800db4c <HAL_RCC_OscConfig+0x470>)
 800da7c:	689b      	ldr	r3, [r3, #8]
 800da7e:	f003 030c 	and.w	r3, r3, #12
 800da82:	2b08      	cmp	r3, #8
 800da84:	d05c      	beq.n	800db40 <HAL_RCC_OscConfig+0x464>
 800da86:	687b      	ldr	r3, [r7, #4]
 800da88:	699b      	ldr	r3, [r3, #24]
 800da8a:	2b02      	cmp	r3, #2
 800da8c:	d141      	bne.n	800db12 <HAL_RCC_OscConfig+0x436>
 800da8e:	4b31      	ldr	r3, [pc, #196]	; (800db54 <HAL_RCC_OscConfig+0x478>)
 800da90:	2200      	movs	r2, #0
 800da92:	601a      	str	r2, [r3, #0]
 800da94:	f7ff fb6e 	bl	800d174 <HAL_GetTick>
 800da98:	6138      	str	r0, [r7, #16]
 800da9a:	e008      	b.n	800daae <HAL_RCC_OscConfig+0x3d2>
 800da9c:	f7ff fb6a 	bl	800d174 <HAL_GetTick>
 800daa0:	4602      	mov	r2, r0
 800daa2:	693b      	ldr	r3, [r7, #16]
 800daa4:	1ad3      	subs	r3, r2, r3
 800daa6:	2b02      	cmp	r3, #2
 800daa8:	d901      	bls.n	800daae <HAL_RCC_OscConfig+0x3d2>
 800daaa:	2303      	movs	r3, #3
 800daac:	e087      	b.n	800dbbe <HAL_RCC_OscConfig+0x4e2>
 800daae:	4b27      	ldr	r3, [pc, #156]	; (800db4c <HAL_RCC_OscConfig+0x470>)
 800dab0:	681b      	ldr	r3, [r3, #0]
 800dab2:	f003 7300 	and.w	r3, r3, #33554432	; 0x2000000
 800dab6:	2b00      	cmp	r3, #0
 800dab8:	d1f0      	bne.n	800da9c <HAL_RCC_OscConfig+0x3c0>
 800daba:	687b      	ldr	r3, [r7, #4]
 800dabc:	69da      	ldr	r2, [r3, #28]
 800dabe:	687b      	ldr	r3, [r7, #4]
 800dac0:	6a1b      	ldr	r3, [r3, #32]
 800dac2:	431a      	orrs	r2, r3
 800dac4:	687b      	ldr	r3, [r7, #4]
 800dac6:	6a5b      	ldr	r3, [r3, #36]	; 0x24
 800dac8:	019b      	lsls	r3, r3, #6
 800daca:	431a      	orrs	r2, r3
 800dacc:	687b      	ldr	r3, [r7, #4]
 800dace:	6a9b      	ldr	r3, [r3, #40]	; 0x28
 800dad0:	085b      	lsrs	r3, r3, #1
 800dad2:	3b01      	subs	r3, #1
 800dad4:	041b      	lsls	r3, r3, #16
 800dad6:	431a      	orrs	r2, r3
 800dad8:	687b      	ldr	r3, [r7, #4]
 800dada:	6adb      	ldr	r3, [r3, #44]	; 0x2c
 800dadc:	061b      	lsls	r3, r3, #24
 800dade:	491b      	ldr	r1, [pc, #108]	; (800db4c <HAL_RCC_OscConfig+0x470>)
 800dae0:	4313      	orrs	r3, r2
 800dae2:	604b      	str	r3, [r1, #4]
 800dae4:	4b1b      	ldr	r3, [pc, #108]	; (800db54 <HAL_RCC_OscConfig+0x478>)
 800dae6:	2201      	movs	r2, #1
 800dae8:	601a      	str	r2, [r3, #0]
 800daea:	f7ff fb43 	bl	800d174 <HAL_GetTick>
 800daee:	6138      	str	r0, [r7, #16]
 800daf0:	e008      	b.n	800db04 <HAL_RCC_OscConfig+0x428>
 800daf2:	f7ff fb3f 	bl	800d174 <HAL_GetTick>
 800daf6:	4602      	mov	r2, r0
 800daf8:	693b      	ldr	r3, [r7, #16]
 800dafa:	1ad3      	subs	r3, r2, r3
 800dafc:	2b02      	cmp	r3, #2
 800dafe:	d901      	bls.n	800db04 <HAL_RCC_OscConfig+0x428>
 800db00:	2303      	movs	r3, #3
 800db02:	e05c      	b.n	800dbbe <HAL_RCC_OscConfig+0x4e2>
 800db04:	4b11      	ldr	r3, [pc, #68]	; (800db4c <HAL_RCC_OscConfig+0x470>)
 800db06:	681b      	ldr	r3, [r3, #0]
 800db08:	f003 7300 	and.w	r3, r3, #33554432	; 0x2000000
 800db0c:	2b00      	cmp	r3, #0
 800db0e:	d0f0      	beq.n	800daf2 <HAL_RCC_OscConfig+0x416>
 800db10:	e054      	b.n	800dbbc <HAL_RCC_OscConfig+0x4e0>
 800db12:	4b10      	ldr	r3, [pc, #64]	; (800db54 <HAL_RCC_OscConfig+0x478>)
 800db14:	2200      	movs	r2, #0
 800db16:	601a      	str	r2, [r3, #0]
 800db18:	f7ff fb2c 	bl	800d174 <HAL_GetTick>
 800db1c:	6138      	str	r0, [r7, #16]
 800db1e:	e008      	b.n	800db32 <HAL_RCC_OscConfig+0x456>
 800db20:	f7ff fb28 	bl	800d174 <HAL_GetTick>
 800db24:	4602      	mov	r2, r0
 800db26:	693b      	ldr	r3, [r7, #16]
 800db28:	1ad3      	subs	r3, r2, r3
 800db2a:	2b02      	cmp	r3, #2
 800db2c:	d901      	bls.n	800db32 <HAL_RCC_OscConfig+0x456>
 800db2e:	2303      	movs	r3, #3
 800db30:	e045      	b.n	800dbbe <HAL_RCC_OscConfig+0x4e2>
 800db32:	4b06      	ldr	r3, [pc, #24]	; (800db4c <HAL_RCC_OscConfig+0x470>)
 800db34:	681b      	ldr	r3, [r3, #0]
 800db36:	f003 7300 	and.w	r3, r3, #33554432	; 0x2000000
 800db3a:	2b00      	cmp	r3, #0
 800db3c:	d1f0      	bne.n	800db20 <HAL_RCC_OscConfig+0x444>
 800db3e:	e03d      	b.n	800dbbc <HAL_RCC_OscConfig+0x4e0>
 800db40:	687b      	ldr	r3, [r7, #4]
 800db42:	699b      	ldr	r3, [r3, #24]
 800db44:	2b01      	cmp	r3, #1
 800db46:	d107      	bne.n	800db58 <HAL_RCC_OscConfig+0x47c>
 800db48:	2301      	movs	r3, #1
 800db4a:	e038      	b.n	800dbbe <HAL_RCC_OscConfig+0x4e2>
 800db4c:	40023800 	.word	0x40023800
 800db50:	40007000 	.word	0x40007000
 800db54:	42470060 	.word	0x42470060
 800db58:	4b1b      	ldr	r3, [pc, #108]	; (800dbc8 <HAL_RCC_OscConfig+0x4ec>)
 800db5a:	685b      	ldr	r3, [r3, #4]
 800db5c:	60fb      	str	r3, [r7, #12]
 800db5e:	687b      	ldr	r3, [r7, #4]
 800db60:	699b      	ldr	r3, [r3, #24]
 800db62:	2b01      	cmp	r3, #1
 800db64:	d028      	beq.n	800dbb8 <HAL_RCC_OscConfig+0x4dc>
 800db66:	68fb      	ldr	r3, [r7, #12]
 800db68:	f403 0280 	and.w	r2, r3, #4194304	; 0x400000
 800db6c:	687b      	ldr	r3, [r7, #4]
 800db6e:	69db      	ldr	r3, [r3, #28]
 800db70:	429a      	cmp	r2, r3
 800db72:	d121      	bne.n	800dbb8 <HAL_RCC_OscConfig+0x4dc>
 800db74:	68fb      	ldr	r3, [r7, #12]
 800db76:	f003 023f 	and.w	r2, r3, #63	; 0x3f
 800db7a:	687b      	ldr	r3, [r7, #4]
 800db7c:	6a1b      	ldr	r3, [r3, #32]
 800db7e:	429a      	cmp	r2, r3
 800db80:	d11a      	bne.n	800dbb8 <HAL_RCC_OscConfig+0x4dc>
 800db82:	68fa      	ldr	r2, [r7, #12]
 800db84:	f647 73c0 	movw	r3, #32704	; 0x7fc0
 800db88:	4013      	ands	r3, r2
 800db8a:	687a      	ldr	r2, [r7, #4]
 800db8c:	6a52      	ldr	r2, [r2, #36]	; 0x24
 800db8e:	0192      	lsls	r2, r2, #6
 800db90:	4293      	cmp	r3, r2
 800db92:	d111      	bne.n	800dbb8 <HAL_RCC_OscConfig+0x4dc>
 800db94:	68fb      	ldr	r3, [r7, #12]
 800db96:	f403 3240 	and.w	r2, r3, #196608	; 0x30000
 800db9a:	687b      	ldr	r3, [r7, #4]
 800db9c:	6a9b      	ldr	r3, [r3, #40]	; 0x28
 800db9e:	085b      	lsrs	r3, r3, #1
 800dba0:	3b01      	subs	r3, #1
 800dba2:	041b      	lsls	r3, r3, #16
 800dba4:	429a      	cmp	r2, r3
 800dba6:	d107      	bne.n	800dbb8 <HAL_RCC_OscConfig+0x4dc>
 800dba8:	68fb      	ldr	r3, [r7, #12]
 800dbaa:	f003 6270 	and.w	r2, r3, #251658240	; 0xf000000
 800dbae:	687b      	ldr	r3, [r7, #4]
 800dbb0:	6adb      	ldr	r3, [r3, #44]	; 0x2c
 800dbb2:	061b      	lsls	r3, r3, #24
 800dbb4:	429a      	cmp	r2, r3
 800dbb6:	d001      	beq.n	800dbbc <HAL_RCC_OscConfig+0x4e0>
 800dbb8:	2301      	movs	r3, #1
 800dbba:	e000      	b.n	800dbbe <HAL_RCC_OscConfig+0x4e2>
 800dbbc:	2300      	movs	r3, #0
 800dbbe:	4618      	mov	r0, r3
 800dbc0:	3718      	adds	r7, #24
 800dbc2:	46bd      	mov	sp, r7
 800dbc4:	bd80      	pop	{r7, pc}
 800dbc6:	bf00      	nop
 800dbc8:	40023800 	.word	0x40023800

0800dbcc <HAL_RCC_ClockConfig>:
 800dbcc:	b580      	push	{r7, lr}
 800dbce:	b084      	sub	sp, #16
 800dbd0:	af00      	add	r7, sp, #0
 800dbd2:	6078      	str	r0, [r7, #4]
 800dbd4:	6039      	str	r1, [r7, #0]
 800dbd6:	687b      	ldr	r3, [r7, #4]
 800dbd8:	2b00      	cmp	r3, #0
 800dbda:	d101      	bne.n	800dbe0 <HAL_RCC_ClockConfig+0x14>
 800dbdc:	2301      	movs	r3, #1
 800dbde:	e0cc      	b.n	800dd7a <HAL_RCC_ClockConfig+0x1ae>
 800dbe0:	4b68      	ldr	r3, [pc, #416]	; (800dd84 <HAL_RCC_ClockConfig+0x1b8>)
 800dbe2:	681b      	ldr	r3, [r3, #0]
 800dbe4:	f003 0307 	and.w	r3, r3, #7
 800dbe8:	683a      	ldr	r2, [r7, #0]
 800dbea:	429a      	cmp	r2, r3
 800dbec:	d90c      	bls.n	800dc08 <HAL_RCC_ClockConfig+0x3c>
 800dbee:	4b65      	ldr	r3, [pc, #404]	; (800dd84 <HAL_RCC_ClockConfig+0x1b8>)
 800dbf0:	683a      	ldr	r2, [r7, #0]
 800dbf2:	b2d2      	uxtb	r2, r2
 800dbf4:	701a      	strb	r2, [r3, #0]
 800dbf6:	4b63      	ldr	r3, [pc, #396]	; (800dd84 <HAL_RCC_ClockConfig+0x1b8>)
 800dbf8:	681b      	ldr	r3, [r3, #0]
 800dbfa:	f003 0307 	and.w	r3, r3, #7
 800dbfe:	683a      	ldr	r2, [r7, #0]
 800dc00:	429a      	cmp	r2, r3
 800dc02:	d001      	beq.n	800dc08 <HAL_RCC_ClockConfig+0x3c>
 800dc04:	2301      	movs	r3, #1
 800dc06:	e0b8      	b.n	800dd7a <HAL_RCC_ClockConfig+0x1ae>
 800dc08:	687b      	ldr	r3, [r7, #4]
 800dc0a:	681b      	ldr	r3, [r3, #0]
 800dc0c:	f003 0302 	and.w	r3, r3, #2
 800dc10:	2b00      	cmp	r3, #0
 800dc12:	d020      	beq.n	800dc56 <HAL_RCC_ClockConfig+0x8a>
 800dc14:	687b      	ldr	r3, [r7, #4]
 800dc16:	681b      	ldr	r3, [r3, #0]
 800dc18:	f003 0304 	and.w	r3, r3, #4
 800dc1c:	2b00      	cmp	r3, #0
 800dc1e:	d005      	beq.n	800dc2c <HAL_RCC_ClockConfig+0x60>
 800dc20:	4b59      	ldr	r3, [pc, #356]	; (800dd88 <HAL_RCC_ClockConfig+0x1bc>)
 800dc22:	689b      	ldr	r3, [r3, #8]
 800dc24:	4a58      	ldr	r2, [pc, #352]	; (800dd88 <HAL_RCC_ClockConfig+0x1bc>)
 800dc26:	f443 53e0 	orr.w	r3, r3, #7168	; 0x1c00
 800dc2a:	6093      	str	r3, [r2, #8]
 800dc2c:	687b      	ldr	r3, [r7, #4]
 800dc2e:	681b      	ldr	r3, [r3, #0]
 800dc30:	f003 0308 	and.w	r3, r3, #8
 800dc34:	2b00      	cmp	r3, #0
 800dc36:	d005      	beq.n	800dc44 <HAL_RCC_ClockConfig+0x78>
 800dc38:	4b53      	ldr	r3, [pc, #332]	; (800dd88 <HAL_RCC_ClockConfig+0x1bc>)
 800dc3a:	689b      	ldr	r3, [r3, #8]
 800dc3c:	4a52      	ldr	r2, [pc, #328]	; (800dd88 <HAL_RCC_ClockConfig+0x1bc>)
 800dc3e:	f443 4360 	orr.w	r3, r3, #57344	; 0xe000
 800dc42:	6093      	str	r3, [r2, #8]
 800dc44:	4b50      	ldr	r3, [pc, #320]	; (800dd88 <HAL_RCC_ClockConfig+0x1bc>)
 800dc46:	689b      	ldr	r3, [r3, #8]
 800dc48:	f023 02f0 	bic.w	r2, r3, #240	; 0xf0
 800dc4c:	687b      	ldr	r3, [r7, #4]
 800dc4e:	689b      	ldr	r3, [r3, #8]
 800dc50:	494d      	ldr	r1, [pc, #308]	; (800dd88 <HAL_RCC_ClockConfig+0x1bc>)
 800dc52:	4313      	orrs	r3, r2
 800dc54:	608b      	str	r3, [r1, #8]
 800dc56:	687b      	ldr	r3, [r7, #4]
 800dc58:	681b      	ldr	r3, [r3, #0]
 800dc5a:	f003 0301 	and.w	r3, r3, #1
 800dc5e:	2b00      	cmp	r3, #0
 800dc60:	d044      	beq.n	800dcec <HAL_RCC_ClockConfig+0x120>
 800dc62:	687b      	ldr	r3, [r7, #4]
 800dc64:	685b      	ldr	r3, [r3, #4]
 800dc66:	2b01      	cmp	r3, #1
 800dc68:	d107      	bne.n	800dc7a <HAL_RCC_ClockConfig+0xae>
 800dc6a:	4b47      	ldr	r3, [pc, #284]	; (800dd88 <HAL_RCC_ClockConfig+0x1bc>)
 800dc6c:	681b      	ldr	r3, [r3, #0]
 800dc6e:	f403 3300 	and.w	r3, r3, #131072	; 0x20000
 800dc72:	2b00      	cmp	r3, #0
 800dc74:	d119      	bne.n	800dcaa <HAL_RCC_ClockConfig+0xde>
 800dc76:	2301      	movs	r3, #1
 800dc78:	e07f      	b.n	800dd7a <HAL_RCC_ClockConfig+0x1ae>
 800dc7a:	687b      	ldr	r3, [r7, #4]
 800dc7c:	685b      	ldr	r3, [r3, #4]
 800dc7e:	2b02      	cmp	r3, #2
 800dc80:	d003      	beq.n	800dc8a <HAL_RCC_ClockConfig+0xbe>
 800dc82:	687b      	ldr	r3, [r7, #4]
 800dc84:	685b      	ldr	r3, [r3, #4]
 800dc86:	2b03      	cmp	r3, #3
 800dc88:	d107      	bne.n	800dc9a <HAL_RCC_ClockConfig+0xce>
 800dc8a:	4b3f      	ldr	r3, [pc, #252]	; (800dd88 <HAL_RCC_ClockConfig+0x1bc>)
 800dc8c:	681b      	ldr	r3, [r3, #0]
 800dc8e:	f003 7300 	and.w	r3, r3, #33554432	; 0x2000000
 800dc92:	2b00      	cmp	r3, #0
 800dc94:	d109      	bne.n	800dcaa <HAL_RCC_ClockConfig+0xde>
 800dc96:	2301      	movs	r3, #1
 800dc98:	e06f      	b.n	800dd7a <HAL_RCC_ClockConfig+0x1ae>
 800dc9a:	4b3b      	ldr	r3, [pc, #236]	; (800dd88 <HAL_RCC_ClockConfig+0x1bc>)
 800dc9c:	681b      	ldr	r3, [r3, #0]
 800dc9e:	f003 0302 	and.w	r3, r3, #2
 800dca2:	2b00      	cmp	r3, #0
 800dca4:	d101      	bne.n	800dcaa <HAL_RCC_ClockConfig+0xde>
 800dca6:	2301      	movs	r3, #1
 800dca8:	e067      	b.n	800dd7a <HAL_RCC_ClockConfig+0x1ae>
 800dcaa:	4b37      	ldr	r3, [pc, #220]	; (800dd88 <HAL_RCC_ClockConfig+0x1bc>)
 800dcac:	689b      	ldr	r3, [r3, #8]
 800dcae:	f023 0203 	bic.w	r2, r3, #3
 800dcb2:	687b      	ldr	r3, [r7, #4]
 800dcb4:	685b      	ldr	r3, [r3, #4]
 800dcb6:	4934      	ldr	r1, [pc, #208]	; (800dd88 <HAL_RCC_ClockConfig+0x1bc>)
 800dcb8:	4313      	orrs	r3, r2
 800dcba:	608b      	str	r3, [r1, #8]
 800dcbc:	f7ff fa5a 	bl	800d174 <HAL_GetTick>
 800dcc0:	60f8      	str	r0, [r7, #12]
 800dcc2:	e00a      	b.n	800dcda <HAL_RCC_ClockConfig+0x10e>
 800dcc4:	f7ff fa56 	bl	800d174 <HAL_GetTick>
 800dcc8:	4602      	mov	r2, r0
 800dcca:	68fb      	ldr	r3, [r7, #12]
 800dccc:	1ad3      	subs	r3, r2, r3
 800dcce:	f241 3288 	movw	r2, #5000	; 0x1388
 800dcd2:	4293      	cmp	r3, r2
 800dcd4:	d901      	bls.n	800dcda <HAL_RCC_ClockConfig+0x10e>
 800dcd6:	2303      	movs	r3, #3
 800dcd8:	e04f      	b.n	800dd7a <HAL_RCC_ClockConfig+0x1ae>
 800dcda:	4b2b      	ldr	r3, [pc, #172]	; (800dd88 <HAL_RCC_ClockConfig+0x1bc>)
 800dcdc:	689b      	ldr	r3, [r3, #8]
 800dcde:	f003 020c 	and.w	r2, r3, #12
 800dce2:	687b      	ldr	r3, [r7, #4]
 800dce4:	685b      	ldr	r3, [r3, #4]
 800dce6:	009b      	lsls	r3, r3, #2
 800dce8:	429a      	cmp	r2, r3
 800dcea:	d1eb      	bne.n	800dcc4 <HAL_RCC_ClockConfig+0xf8>
 800dcec:	4b25      	ldr	r3, [pc, #148]	; (800dd84 <HAL_RCC_ClockConfig+0x1b8>)
 800dcee:	681b      	ldr	r3, [r3, #0]
 800dcf0:	f003 0307 	and.w	r3, r3, #7
 800dcf4:	683a      	ldr	r2, [r7, #0]
 800dcf6:	429a      	cmp	r2, r3
 800dcf8:	d20c      	bcs.n	800dd14 <HAL_RCC_ClockConfig+0x148>
 800dcfa:	4b22      	ldr	r3, [pc, #136]	; (800dd84 <HAL_RCC_ClockConfig+0x1b8>)
 800dcfc:	683a      	ldr	r2, [r7, #0]
 800dcfe:	b2d2      	uxtb	r2, r2
 800dd00:	701a      	strb	r2, [r3, #0]
 800dd02:	4b20      	ldr	r3, [pc, #128]	; (800dd84 <HAL_RCC_ClockConfig+0x1b8>)
 800dd04:	681b      	ldr	r3, [r3, #0]
 800dd06:	f003 0307 	and.w	r3, r3, #7
 800dd0a:	683a      	ldr	r2, [r7, #0]
 800dd0c:	429a      	cmp	r2, r3
 800dd0e:	d001      	beq.n	800dd14 <HAL_RCC_ClockConfig+0x148>
 800dd10:	2301      	movs	r3, #1
 800dd12:	e032      	b.n	800dd7a <HAL_RCC_ClockConfig+0x1ae>
 800dd14:	687b      	ldr	r3, [r7, #4]
 800dd16:	681b      	ldr	r3, [r3, #0]
 800dd18:	f003 0304 	and.w	r3, r3, #4
 800dd1c:	2b00      	cmp	r3, #0
 800dd1e:	d008      	beq.n	800dd32 <HAL_RCC_ClockConfig+0x166>
 800dd20:	4b19      	ldr	r3, [pc, #100]	; (800dd88 <HAL_RCC_ClockConfig+0x1bc>)
 800dd22:	689b      	ldr	r3, [r3, #8]
 800dd24:	f423 52e0 	bic.w	r2, r3, #7168	; 0x1c00
 800dd28:	687b      	ldr	r3, [r7, #4]
 800dd2a:	68db      	ldr	r3, [r3, #12]
 800dd2c:	4916      	ldr	r1, [pc, #88]	; (800dd88 <HAL_RCC_ClockConfig+0x1bc>)
 800dd2e:	4313      	orrs	r3, r2
 800dd30:	608b      	str	r3, [r1, #8]
 800dd32:	687b      	ldr	r3, [r7, #4]
 800dd34:	681b      	ldr	r3, [r3, #0]
 800dd36:	f003 0308 	and.w	r3, r3, #8
 800dd3a:	2b00      	cmp	r3, #0
 800dd3c:	d009      	beq.n	800dd52 <HAL_RCC_ClockConfig+0x186>
 800dd3e:	4b12      	ldr	r3, [pc, #72]	; (800dd88 <HAL_RCC_ClockConfig+0x1bc>)
 800dd40:	689b      	ldr	r3, [r3, #8]
 800dd42:	f423 4260 	bic.w	r2, r3, #57344	; 0xe000
 800dd46:	687b      	ldr	r3, [r7, #4]
 800dd48:	691b      	ldr	r3, [r3, #16]
 800dd4a:	00db      	lsls	r3, r3, #3
 800dd4c:	490e      	ldr	r1, [pc, #56]	; (800dd88 <HAL_RCC_ClockConfig+0x1bc>)
 800dd4e:	4313      	orrs	r3, r2
 800dd50:	608b      	str	r3, [r1, #8]
 800dd52:	f000 f821 	bl	800dd98 <HAL_RCC_GetSysClockFreq>
 800dd56:	4602      	mov	r2, r0
 800dd58:	4b0b      	ldr	r3, [pc, #44]	; (800dd88 <HAL_RCC_ClockConfig+0x1bc>)
 800dd5a:	689b      	ldr	r3, [r3, #8]
 800dd5c:	091b      	lsrs	r3, r3, #4
 800dd5e:	f003 030f 	and.w	r3, r3, #15
 800dd62:	490a      	ldr	r1, [pc, #40]	; (800dd8c <HAL_RCC_ClockConfig+0x1c0>)
 800dd64:	5ccb      	ldrb	r3, [r1, r3]
 800dd66:	fa22 f303 	lsr.w	r3, r2, r3
 800dd6a:	4a09      	ldr	r2, [pc, #36]	; (800dd90 <HAL_RCC_ClockConfig+0x1c4>)
 800dd6c:	6013      	str	r3, [r2, #0]
 800dd6e:	4b09      	ldr	r3, [pc, #36]	; (800dd94 <HAL_RCC_ClockConfig+0x1c8>)
 800dd70:	681b      	ldr	r3, [r3, #0]
 800dd72:	4618      	mov	r0, r3
 800dd74:	f7ff f9ba 	bl	800d0ec <HAL_InitTick>
 800dd78:	2300      	movs	r3, #0
 800dd7a:	4618      	mov	r0, r3
 800dd7c:	3710      	adds	r7, #16
 800dd7e:	46bd      	mov	sp, r7
 800dd80:	bd80      	pop	{r7, pc}
 800dd82:	bf00      	nop
 800dd84:	40023c00 	.word	0x40023c00
 800dd88:	40023800 	.word	0x40023800
 800dd8c:	0800e0a8 	.word	0x0800e0a8
 800dd90:	20000000 	.word	0x20000000
 800dd94:	20000004 	.word	0x20000004

0800dd98 <HAL_RCC_GetSysClockFreq>:
 800dd98:	e92d 4fb0 	stmdb	sp!, {r4, r5, r7, r8, r9, sl, fp, lr}
 800dd9c:	b090      	sub	sp, #64	; 0x40
 800dd9e:	af00      	add	r7, sp, #0
 800dda0:	2300      	movs	r3, #0
 800dda2:	637b      	str	r3, [r7, #52]	; 0x34
 800dda4:	2300      	movs	r3, #0
 800dda6:	63fb      	str	r3, [r7, #60]	; 0x3c
 800dda8:	2300      	movs	r3, #0
 800ddaa:	633b      	str	r3, [r7, #48]	; 0x30
 800ddac:	2300      	movs	r3, #0
 800ddae:	63bb      	str	r3, [r7, #56]	; 0x38
 800ddb0:	4b59      	ldr	r3, [pc, #356]	; (800df18 <HAL_RCC_GetSysClockFreq+0x180>)
 800ddb2:	689b      	ldr	r3, [r3, #8]
 800ddb4:	f003 030c 	and.w	r3, r3, #12
 800ddb8:	2b08      	cmp	r3, #8
 800ddba:	d00d      	beq.n	800ddd8 <HAL_RCC_GetSysClockFreq+0x40>
 800ddbc:	2b08      	cmp	r3, #8
 800ddbe:	f200 80a1 	bhi.w	800df04 <HAL_RCC_GetSysClockFreq+0x16c>
 800ddc2:	2b00      	cmp	r3, #0
 800ddc4:	d002      	beq.n	800ddcc <HAL_RCC_GetSysClockFreq+0x34>
 800ddc6:	2b04      	cmp	r3, #4
 800ddc8:	d003      	beq.n	800ddd2 <HAL_RCC_GetSysClockFreq+0x3a>
 800ddca:	e09b      	b.n	800df04 <HAL_RCC_GetSysClockFreq+0x16c>
 800ddcc:	4b53      	ldr	r3, [pc, #332]	; (800df1c <HAL_RCC_GetSysClockFreq+0x184>)
 800ddce:	63bb      	str	r3, [r7, #56]	; 0x38
 800ddd0:	e09b      	b.n	800df0a <HAL_RCC_GetSysClockFreq+0x172>
 800ddd2:	4b53      	ldr	r3, [pc, #332]	; (800df20 <HAL_RCC_GetSysClockFreq+0x188>)
 800ddd4:	63bb      	str	r3, [r7, #56]	; 0x38
 800ddd6:	e098      	b.n	800df0a <HAL_RCC_GetSysClockFreq+0x172>
 800ddd8:	4b4f      	ldr	r3, [pc, #316]	; (800df18 <HAL_RCC_GetSysClockFreq+0x180>)
 800ddda:	685b      	ldr	r3, [r3, #4]
 800dddc:	f003 033f 	and.w	r3, r3, #63	; 0x3f
 800dde0:	637b      	str	r3, [r7, #52]	; 0x34
 800dde2:	4b4d      	ldr	r3, [pc, #308]	; (800df18 <HAL_RCC_GetSysClockFreq+0x180>)
 800dde4:	685b      	ldr	r3, [r3, #4]
 800dde6:	f403 0380 	and.w	r3, r3, #4194304	; 0x400000
 800ddea:	2b00      	cmp	r3, #0
 800ddec:	d028      	beq.n	800de40 <HAL_RCC_GetSysClockFreq+0xa8>
 800ddee:	4b4a      	ldr	r3, [pc, #296]	; (800df18 <HAL_RCC_GetSysClockFreq+0x180>)
 800ddf0:	685b      	ldr	r3, [r3, #4]
 800ddf2:	099b      	lsrs	r3, r3, #6
 800ddf4:	2200      	movs	r2, #0
 800ddf6:	623b      	str	r3, [r7, #32]
 800ddf8:	627a      	str	r2, [r7, #36]	; 0x24
 800ddfa:	6a3b      	ldr	r3, [r7, #32]
 800ddfc:	f3c3 0008 	ubfx	r0, r3, #0, #9
 800de00:	2100      	movs	r1, #0
 800de02:	4b47      	ldr	r3, [pc, #284]	; (800df20 <HAL_RCC_GetSysClockFreq+0x188>)
 800de04:	fb03 f201 	mul.w	r2, r3, r1
 800de08:	2300      	movs	r3, #0
 800de0a:	fb00 f303 	mul.w	r3, r0, r3
 800de0e:	4413      	add	r3, r2
 800de10:	4a43      	ldr	r2, [pc, #268]	; (800df20 <HAL_RCC_GetSysClockFreq+0x188>)
 800de12:	fba0 1202 	umull	r1, r2, r0, r2
 800de16:	62fa      	str	r2, [r7, #44]	; 0x2c
 800de18:	460a      	mov	r2, r1
 800de1a:	62ba      	str	r2, [r7, #40]	; 0x28
 800de1c:	6afa      	ldr	r2, [r7, #44]	; 0x2c
 800de1e:	4413      	add	r3, r2
 800de20:	62fb      	str	r3, [r7, #44]	; 0x2c
 800de22:	6b7b      	ldr	r3, [r7, #52]	; 0x34
 800de24:	2200      	movs	r2, #0
 800de26:	61bb      	str	r3, [r7, #24]
 800de28:	61fa      	str	r2, [r7, #28]
 800de2a:	e9d7 2306 	ldrd	r2, r3, [r7, #24]
 800de2e:	e9d7 010a 	ldrd	r0, r1, [r7, #40]	; 0x28
 800de32:	f7fe fdcf 	bl	800c9d4 <__aeabi_uldivmod>
 800de36:	4602      	mov	r2, r0
 800de38:	460b      	mov	r3, r1
 800de3a:	4613      	mov	r3, r2
 800de3c:	63fb      	str	r3, [r7, #60]	; 0x3c
 800de3e:	e053      	b.n	800dee8 <HAL_RCC_GetSysClockFreq+0x150>
 800de40:	4b35      	ldr	r3, [pc, #212]	; (800df18 <HAL_RCC_GetSysClockFreq+0x180>)
 800de42:	685b      	ldr	r3, [r3, #4]
 800de44:	099b      	lsrs	r3, r3, #6
 800de46:	2200      	movs	r2, #0
 800de48:	613b      	str	r3, [r7, #16]
 800de4a:	617a      	str	r2, [r7, #20]
 800de4c:	693b      	ldr	r3, [r7, #16]
 800de4e:	f3c3 0a08 	ubfx	sl, r3, #0, #9
 800de52:	f04f 0b00 	mov.w	fp, #0
 800de56:	4652      	mov	r2, sl
 800de58:	465b      	mov	r3, fp
 800de5a:	f04f 0000 	mov.w	r0, #0
 800de5e:	f04f 0100 	mov.w	r1, #0
 800de62:	0159      	lsls	r1, r3, #5
 800de64:	ea41 61d2 	orr.w	r1, r1, r2, lsr #27
 800de68:	0150      	lsls	r0, r2, #5
 800de6a:	4602      	mov	r2, r0
 800de6c:	460b      	mov	r3, r1
 800de6e:	ebb2 080a 	subs.w	r8, r2, sl
 800de72:	eb63 090b 	sbc.w	r9, r3, fp
 800de76:	f04f 0200 	mov.w	r2, #0
 800de7a:	f04f 0300 	mov.w	r3, #0
 800de7e:	ea4f 1389 	mov.w	r3, r9, lsl #6
 800de82:	ea43 6398 	orr.w	r3, r3, r8, lsr #26
 800de86:	ea4f 1288 	mov.w	r2, r8, lsl #6
 800de8a:	ebb2 0408 	subs.w	r4, r2, r8
 800de8e:	eb63 0509 	sbc.w	r5, r3, r9
 800de92:	f04f 0200 	mov.w	r2, #0
 800de96:	f04f 0300 	mov.w	r3, #0
 800de9a:	00eb      	lsls	r3, r5, #3
 800de9c:	ea43 7354 	orr.w	r3, r3, r4, lsr #29
 800dea0:	00e2      	lsls	r2, r4, #3
 800dea2:	4614      	mov	r4, r2
 800dea4:	461d      	mov	r5, r3
 800dea6:	eb14 030a 	adds.w	r3, r4, sl
 800deaa:	603b      	str	r3, [r7, #0]
 800deac:	eb45 030b 	adc.w	r3, r5, fp
 800deb0:	607b      	str	r3, [r7, #4]
 800deb2:	f04f 0200 	mov.w	r2, #0
 800deb6:	f04f 0300 	mov.w	r3, #0
 800deba:	e9d7 4500 	ldrd	r4, r5, [r7]
 800debe:	4629      	mov	r1, r5
 800dec0:	028b      	lsls	r3, r1, #10
 800dec2:	4621      	mov	r1, r4
 800dec4:	ea43 5391 	orr.w	r3, r3, r1, lsr #22
 800dec8:	4621      	mov	r1, r4
 800deca:	028a      	lsls	r2, r1, #10
 800decc:	4610      	mov	r0, r2
 800dece:	4619      	mov	r1, r3
 800ded0:	6b7b      	ldr	r3, [r7, #52]	; 0x34
 800ded2:	2200      	movs	r2, #0
 800ded4:	60bb      	str	r3, [r7, #8]
 800ded6:	60fa      	str	r2, [r7, #12]
 800ded8:	e9d7 2302 	ldrd	r2, r3, [r7, #8]
 800dedc:	f7fe fd7a 	bl	800c9d4 <__aeabi_uldivmod>
 800dee0:	4602      	mov	r2, r0
 800dee2:	460b      	mov	r3, r1
 800dee4:	4613      	mov	r3, r2
 800dee6:	63fb      	str	r3, [r7, #60]	; 0x3c
 800dee8:	4b0b      	ldr	r3, [pc, #44]	; (800df18 <HAL_RCC_GetSysClockFreq+0x180>)
 800deea:	685b      	ldr	r3, [r3, #4]
 800deec:	0c1b      	lsrs	r3, r3, #16
 800deee:	f003 0303 	and.w	r3, r3, #3
 800def2:	3301      	adds	r3, #1
 800def4:	005b      	lsls	r3, r3, #1
 800def6:	633b      	str	r3, [r7, #48]	; 0x30
 800def8:	6bfa      	ldr	r2, [r7, #60]	; 0x3c
 800defa:	6b3b      	ldr	r3, [r7, #48]	; 0x30
 800defc:	fbb2 f3f3 	udiv	r3, r2, r3
 800df00:	63bb      	str	r3, [r7, #56]	; 0x38
 800df02:	e002      	b.n	800df0a <HAL_RCC_GetSysClockFreq+0x172>
 800df04:	4b05      	ldr	r3, [pc, #20]	; (800df1c <HAL_RCC_GetSysClockFreq+0x184>)
 800df06:	63bb      	str	r3, [r7, #56]	; 0x38
 800df08:	bf00      	nop
 800df0a:	6bbb      	ldr	r3, [r7, #56]	; 0x38
 800df0c:	4618      	mov	r0, r3
 800df0e:	3740      	adds	r7, #64	; 0x40
 800df10:	46bd      	mov	sp, r7
 800df12:	e8bd 8fb0 	ldmia.w	sp!, {r4, r5, r7, r8, r9, sl, fp, pc}
 800df16:	bf00      	nop
 800df18:	40023800 	.word	0x40023800
 800df1c:	00f42400 	.word	0x00f42400
 800df20:	017d7840 	.word	0x017d7840

0800df24 <HAL_SPI_Init>:
 800df24:	b580      	push	{r7, lr}
 800df26:	b082      	sub	sp, #8
 800df28:	af00      	add	r7, sp, #0
 800df2a:	6078      	str	r0, [r7, #4]
 800df2c:	687b      	ldr	r3, [r7, #4]
 800df2e:	2b00      	cmp	r3, #0
 800df30:	d101      	bne.n	800df36 <HAL_SPI_Init+0x12>
 800df32:	2301      	movs	r3, #1
 800df34:	e07b      	b.n	800e02e <HAL_SPI_Init+0x10a>
 800df36:	687b      	ldr	r3, [r7, #4]
 800df38:	6a5b      	ldr	r3, [r3, #36]	; 0x24
 800df3a:	2b00      	cmp	r3, #0
 800df3c:	d108      	bne.n	800df50 <HAL_SPI_Init+0x2c>
 800df3e:	687b      	ldr	r3, [r7, #4]
 800df40:	685b      	ldr	r3, [r3, #4]
 800df42:	f5b3 7f82 	cmp.w	r3, #260	; 0x104
 800df46:	d009      	beq.n	800df5c <HAL_SPI_Init+0x38>
 800df48:	687b      	ldr	r3, [r7, #4]
 800df4a:	2200      	movs	r2, #0
 800df4c:	61da      	str	r2, [r3, #28]
 800df4e:	e005      	b.n	800df5c <HAL_SPI_Init+0x38>
 800df50:	687b      	ldr	r3, [r7, #4]
 800df52:	2200      	movs	r2, #0
 800df54:	611a      	str	r2, [r3, #16]
 800df56:	687b      	ldr	r3, [r7, #4]
 800df58:	2200      	movs	r2, #0
 800df5a:	615a      	str	r2, [r3, #20]
 800df5c:	687b      	ldr	r3, [r7, #4]
 800df5e:	2200      	movs	r2, #0
 800df60:	629a      	str	r2, [r3, #40]	; 0x28
 800df62:	687b      	ldr	r3, [r7, #4]
 800df64:	f893 3051 	ldrb.w	r3, [r3, #81]	; 0x51
 800df68:	b2db      	uxtb	r3, r3
 800df6a:	2b00      	cmp	r3, #0
 800df6c:	d106      	bne.n	800df7c <HAL_SPI_Init+0x58>
 800df6e:	687b      	ldr	r3, [r7, #4]
 800df70:	2200      	movs	r2, #0
 800df72:	f883 2050 	strb.w	r2, [r3, #80]	; 0x50
 800df76:	6878      	ldr	r0, [r7, #4]
 800df78:	f7fe ffbc 	bl	800cef4 <HAL_SPI_MspInit>
 800df7c:	687b      	ldr	r3, [r7, #4]
 800df7e:	2202      	movs	r2, #2
 800df80:	f883 2051 	strb.w	r2, [r3, #81]	; 0x51
 800df84:	687b      	ldr	r3, [r7, #4]
 800df86:	681b      	ldr	r3, [r3, #0]
 800df88:	681a      	ldr	r2, [r3, #0]
 800df8a:	687b      	ldr	r3, [r7, #4]
 800df8c:	681b      	ldr	r3, [r3, #0]
 800df8e:	f022 0240 	bic.w	r2, r2, #64	; 0x40
 800df92:	601a      	str	r2, [r3, #0]
 800df94:	687b      	ldr	r3, [r7, #4]
 800df96:	685b      	ldr	r3, [r3, #4]
 800df98:	f403 7282 	and.w	r2, r3, #260	; 0x104
 800df9c:	687b      	ldr	r3, [r7, #4]
 800df9e:	689b      	ldr	r3, [r3, #8]
 800dfa0:	f403 4304 	and.w	r3, r3, #33792	; 0x8400
 800dfa4:	431a      	orrs	r2, r3
 800dfa6:	687b      	ldr	r3, [r7, #4]
 800dfa8:	68db      	ldr	r3, [r3, #12]
 800dfaa:	f403 6300 	and.w	r3, r3, #2048	; 0x800
 800dfae:	431a      	orrs	r2, r3
 800dfb0:	687b      	ldr	r3, [r7, #4]
 800dfb2:	691b      	ldr	r3, [r3, #16]
 800dfb4:	f003 0302 	and.w	r3, r3, #2
 800dfb8:	431a      	orrs	r2, r3
 800dfba:	687b      	ldr	r3, [r7, #4]
 800dfbc:	695b      	ldr	r3, [r3, #20]
 800dfbe:	f003 0301 	and.w	r3, r3, #1
 800dfc2:	431a      	orrs	r2, r3
 800dfc4:	687b      	ldr	r3, [r7, #4]
 800dfc6:	699b      	ldr	r3, [r3, #24]
 800dfc8:	f403 7300 	and.w	r3, r3, #512	; 0x200
 800dfcc:	431a      	orrs	r2, r3
 800dfce:	687b      	ldr	r3, [r7, #4]
 800dfd0:	69db      	ldr	r3, [r3, #28]
 800dfd2:	f003 0338 	and.w	r3, r3, #56	; 0x38
 800dfd6:	431a      	orrs	r2, r3
 800dfd8:	687b      	ldr	r3, [r7, #4]
 800dfda:	6a1b      	ldr	r3, [r3, #32]
 800dfdc:	f003 0380 	and.w	r3, r3, #128	; 0x80
 800dfe0:	ea42 0103 	orr.w	r1, r2, r3
 800dfe4:	687b      	ldr	r3, [r7, #4]
 800dfe6:	6a9b      	ldr	r3, [r3, #40]	; 0x28
 800dfe8:	f403 5200 	and.w	r2, r3, #8192	; 0x2000
 800dfec:	687b      	ldr	r3, [r7, #4]
 800dfee:	681b      	ldr	r3, [r3, #0]
 800dff0:	430a      	orrs	r2, r1
 800dff2:	601a      	str	r2, [r3, #0]
 800dff4:	687b      	ldr	r3, [r7, #4]
 800dff6:	699b      	ldr	r3, [r3, #24]
 800dff8:	0c1b      	lsrs	r3, r3, #16
 800dffa:	f003 0104 	and.w	r1, r3, #4
 800dffe:	687b      	ldr	r3, [r7, #4]
 800e000:	6a5b      	ldr	r3, [r3, #36]	; 0x24
 800e002:	f003 0210 	and.w	r2, r3, #16
 800e006:	687b      	ldr	r3, [r7, #4]
 800e008:	681b      	ldr	r3, [r3, #0]
 800e00a:	430a      	orrs	r2, r1
 800e00c:	605a      	str	r2, [r3, #4]
 800e00e:	687b      	ldr	r3, [r7, #4]
 800e010:	681b      	ldr	r3, [r3, #0]
 800e012:	69da      	ldr	r2, [r3, #28]
 800e014:	687b      	ldr	r3, [r7, #4]
 800e016:	681b      	ldr	r3, [r3, #0]
 800e018:	f422 6200 	bic.w	r2, r2, #2048	; 0x800
 800e01c:	61da      	str	r2, [r3, #28]
 800e01e:	687b      	ldr	r3, [r7, #4]
 800e020:	2200      	movs	r2, #0
 800e022:	655a      	str	r2, [r3, #84]	; 0x54
 800e024:	687b      	ldr	r3, [r7, #4]
 800e026:	2201      	movs	r2, #1
 800e028:	f883 2051 	strb.w	r2, [r3, #81]	; 0x51
 800e02c:	2300      	movs	r3, #0
 800e02e:	4618      	mov	r0, r3
 800e030:	3708      	adds	r7, #8
 800e032:	46bd      	mov	sp, r7
 800e034:	bd80      	pop	{r7, pc}

0800e036 <memset>:
 800e036:	4402      	add	r2, r0
 800e038:	4603      	mov	r3, r0
 800e03a:	4293      	cmp	r3, r2
 800e03c:	d100      	bne.n	800e040 <memset+0xa>
 800e03e:	4770      	bx	lr
 800e040:	f803 1b01 	strb.w	r1, [r3], #1
 800e044:	e7f9      	b.n	800e03a <memset+0x4>
	...

0800e048 <__libc_init_array>:
 800e048:	b570      	push	{r4, r5, r6, lr}
 800e04a:	4d0d      	ldr	r5, [pc, #52]	; (800e080 <__libc_init_array+0x38>)
 800e04c:	4c0d      	ldr	r4, [pc, #52]	; (800e084 <__libc_init_array+0x3c>)
 800e04e:	1b64      	subs	r4, r4, r5
 800e050:	10a4      	asrs	r4, r4, #2
 800e052:	2600      	movs	r6, #0
 800e054:	42a6      	cmp	r6, r4
 800e056:	d109      	bne.n	800e06c <__libc_init_array+0x24>
 800e058:	4d0b      	ldr	r5, [pc, #44]	; (800e088 <__libc_init_array+0x40>)
 800e05a:	4c0c      	ldr	r4, [pc, #48]	; (800e08c <__libc_init_array+0x44>)
 800e05c:	f000 f818 	bl	800e090 <_init>
 800e060:	1b64      	subs	r4, r4, r5
 800e062:	10a4      	asrs	r4, r4, #2
 800e064:	2600      	movs	r6, #0
 800e066:	42a6      	cmp	r6, r4
 800e068:	d105      	bne.n	800e076 <__libc_init_array+0x2e>
 800e06a:	bd70      	pop	{r4, r5, r6, pc}
 800e06c:	f855 3b04 	ldr.w	r3, [r5], #4
 800e070:	4798      	blx	r3
 800e072:	3601      	adds	r6, #1
 800e074:	e7ee      	b.n	800e054 <__libc_init_array+0xc>
 800e076:	f855 3b04 	ldr.w	r3, [r5], #4
 800e07a:	4798      	blx	r3
 800e07c:	3601      	adds	r6, #1
 800e07e:	e7f2      	b.n	800e066 <__libc_init_array+0x1e>
 800e080:	0800e0c0 	.word	0x0800e0c0
 800e084:	0800e0c0 	.word	0x0800e0c0
 800e088:	0800e0c0 	.word	0x0800e0c0
 800e08c:	0800e0c4 	.word	0x0800e0c4

0800e090 <_init>:
 800e090:	b5f8      	push	{r3, r4, r5, r6, r7, lr}
 800e092:	bf00      	nop
 800e094:	bcf8      	pop	{r3, r4, r5, r6, r7}
 800e096:	bc08      	pop	{r3}
 800e098:	469e      	mov	lr, r3
 800e09a:	4770      	bx	lr

0800e09c <_fini>:
 800e09c:	b5f8      	push	{r3, r4, r5, r6, r7, lr}
 800e09e:	bf00      	nop
 800e0a0:	bcf8      	pop	{r3, r4, r5, r6, r7}
 800e0a2:	bc08      	pop	{r3}
 800e0a4:	469e      	mov	lr, r3
 800e0a6:	4770      	bx	lr
